SF:D:\project\pyxis\crates\pyxis-cli\src\cli.rs
FN:95,_RNvNtCs73RknK5kFD3_5pyxis3cli4main
FN:69,_RNvNtCs73RknK5kFD3_5pyxis3cli7execute
FN:65,_RNvNtCs73RknK5kFD3_5pyxis3cli7verbose
FN:82,_RNvNtCs73RknK5kFD3_5pyxis3cli8init_log
FN:95,_RNvNtCs5Xnii73E9Kd_5pyxis3cli4main
FN:69,_RNvNtCs5Xnii73E9Kd_5pyxis3cli7execute
FN:65,_RNvNtCs5Xnii73E9Kd_5pyxis3cli7verbose
FN:82,_RNvNtCs5Xnii73E9Kd_5pyxis3cli8init_log
FNDA:0,_RNvNtCs73RknK5kFD3_5pyxis3cli4main
FNDA:0,_RNvNtCs73RknK5kFD3_5pyxis3cli7execute
FNDA:0,_RNvNtCs73RknK5kFD3_5pyxis3cli7verbose
FNDA:0,_RNvNtCs73RknK5kFD3_5pyxis3cli8init_log
FNDA:36,_RNvNtCs5Xnii73E9Kd_5pyxis3cli4main
FNDA:36,_RNvNtCs5Xnii73E9Kd_5pyxis3cli7execute
FNDA:36,_RNvNtCs5Xnii73E9Kd_5pyxis3cli7verbose
FNDA:36,_RNvNtCs5Xnii73E9Kd_5pyxis3cli8init_log
FNF:4
FNH:4
DA:65,36
DA:67,36
DA:68,36
DA:69,36
DA:70,36
DA:71,36
DA:72,36
DA:73,36
DA:74,36
DA:75,36
DA:76,36
DA:77,36
DA:78,36
DA:79,36
DA:80,36
DA:81,36
DA:82,36
DA:83,36
DA:84,0
DA:85,0
DA:86,36
DA:87,0
DA:88,0
DA:89,0
DA:91,36
DA:92,36
DA:93,36
DA:94,36
DA:95,36
DA:96,36
DA:97,36
DA:98,36
DA:99,36
DA:100,36
BRF:0
BRH:0
LF:34
LH:29
end_of_record
SF:D:\project\pyxis\crates\pyxis-cli\src\cli\transform.rs
FN:148,_RNvNtNtCs73RknK5kFD3_5pyxis3cli9transform7execute
FN:148,_RNvNtNtCs5Xnii73E9Kd_5pyxis3cli9transform7execute
FNDA:0,_RNvNtNtCs73RknK5kFD3_5pyxis3cli9transform7execute
FNDA:36,_RNvNtNtCs5Xnii73E9Kd_5pyxis3cli9transform7execute
FNF:1
FNH:1
DA:148,36
DA:149,36
DA:150,36
DA:151,36
DA:152,36
DA:153,36
DA:154,36
DA:155,36
DA:156,36
DA:157,36
DA:158,36
DA:159,36
DA:160,36
DA:161,36
DA:162,36
DA:163,36
DA:164,36
DA:165,36
DA:166,36
DA:167,36
DA:168,36
DA:169,36
DA:170,36
DA:171,36
DA:172,6
DA:173,6
DA:174,6
DA:175,6
DA:176,6
DA:177,6
DA:178,6
DA:179,6
DA:180,6
DA:181,6
DA:182,6
DA:183,6
DA:184,6
DA:185,6
DA:186,6
DA:187,6
DA:188,6
DA:189,6
DA:191,1
DA:192,1
DA:193,1
DA:194,1
DA:195,1
DA:196,1
DA:197,1
DA:198,1
DA:199,1
DA:200,1
DA:201,1
DA:202,1
DA:203,1
DA:204,1
DA:205,1
DA:206,1
DA:207,1
DA:208,1
DA:209,1
DA:210,1
DA:211,1
DA:212,1
DA:213,1
DA:214,1
DA:216,1
DA:217,1
DA:218,1
DA:219,1
DA:220,1
DA:221,1
DA:222,1
DA:223,1
DA:224,1
DA:225,1
DA:226,1
DA:227,1
DA:228,1
DA:229,1
DA:230,1
DA:231,1
DA:232,1
DA:233,1
DA:234,1
DA:235,1
DA:236,1
DA:237,1
DA:238,1
DA:240,6
DA:241,6
DA:242,6
DA:243,6
DA:244,6
DA:245,6
DA:246,6
DA:247,6
DA:248,6
DA:249,6
DA:250,6
DA:251,6
DA:252,6
DA:253,6
DA:254,6
DA:255,6
DA:256,6
DA:257,6
DA:258,6
DA:259,6
DA:260,6
DA:261,6
DA:262,6
DA:263,6
DA:264,6
DA:265,6
DA:266,6
DA:267,6
DA:268,1
DA:269,1
DA:270,1
DA:271,1
DA:272,1
DA:273,1
DA:274,1
DA:275,1
DA:276,1
DA:277,1
DA:278,1
DA:279,1
DA:280,1
DA:281,1
DA:282,1
DA:283,4
DA:284,4
DA:285,4
DA:286,4
DA:287,4
DA:288,4
DA:289,4
DA:290,4
DA:291,4
DA:292,4
DA:293,4
DA:294,4
DA:295,4
DA:296,4
DA:297,4
DA:298,4
DA:299,4
DA:300,4
DA:303,8
DA:304,8
DA:305,8
DA:306,8
DA:307,8
DA:308,8
DA:309,8
DA:310,8
DA:311,8
DA:312,8
DA:313,8
DA:314,8
DA:315,8
DA:316,8
DA:317,8
DA:318,8
DA:319,8
DA:320,8
DA:321,8
DA:322,8
DA:323,8
DA:324,8
DA:325,8
DA:326,8
DA:327,8
DA:328,8
DA:329,8
DA:330,8
DA:332,1
DA:333,1
DA:334,1
DA:335,1
DA:336,1
DA:337,1
DA:338,1
DA:339,1
DA:340,1
DA:341,1
DA:342,1
DA:343,1
DA:344,1
DA:345,1
DA:346,1
DA:347,1
DA:348,1
DA:349,1
DA:350,1
DA:351,1
DA:352,1
DA:353,1
DA:354,1
DA:355,1
DA:356,1
DA:357,1
DA:358,1
DA:359,1
DA:360,6
DA:361,6
DA:362,6
DA:363,6
DA:364,6
DA:365,6
DA:366,6
DA:367,6
DA:368,6
DA:369,6
DA:370,6
DA:371,6
DA:372,6
DA:373,6
DA:374,6
DA:375,6
DA:376,6
DA:377,6
DA:378,1
DA:379,1
DA:380,1
DA:381,1
DA:382,1
DA:383,1
DA:384,1
DA:385,1
DA:386,1
DA:387,1
DA:388,1
DA:389,1
DA:390,1
DA:391,1
DA:392,1
DA:393,1
DA:394,1
DA:395,1
DA:396,1
DA:398,1
DA:399,1
DA:400,1
DA:401,1
DA:402,1
DA:403,1
DA:404,1
DA:405,1
DA:406,1
DA:407,1
DA:408,1
DA:409,1
DA:410,1
DA:411,1
DA:412,1
DA:413,1
DA:414,1
DA:415,1
DA:416,1
DA:417,1
DA:418,1
DA:419,1
DA:420,1
DA:422,36
DA:425,36
DA:426,33
DA:427,2
DA:428,1
DA:430,36
BRF:0
BRH:0
LF:272
LH:272
end_of_record
SF:D:\project\pyxis\crates\pyxis-cli\src\cli\transform\context.rs
FN:53,_RNvMNtNtNtCs73RknK5kFD3_5pyxis3cli9transform7contextNtB2_16ContextTransform14datum_compense
FN:114,_RNvMNtNtNtCs73RknK5kFD3_5pyxis3cli9transform7contextNtB2_16ContextTransform4proj
FN:168,_RNvMNtNtNtCs73RknK5kFD3_5pyxis3cli9transform7contextNtB2_16ContextTransform5scale
FN:179,_RNvMNtNtNtCs73RknK5kFD3_5pyxis3cli9transform7contextNtB2_16ContextTransform5space
FN:12,_RNvMNtNtNtCs73RknK5kFD3_5pyxis3cli9transform7contextNtB2_16ContextTransform6crypto
FN:121,_RNvMNtNtNtCs73RknK5kFD3_5pyxis3cli9transform7contextNtB2_16ContextTransform6rotate
FN:60,_RNvMNtNtNtCs73RknK5kFD3_5pyxis3cli9transform7contextNtB2_16ContextTransform7lbh2xyz
FN:215,_RNvMNtNtNtCs73RknK5kFD3_5pyxis3cli9transform7contextNtB2_16ContextTransform7xyz2lbh
FN:63,_RNvMNtNtNtCs73RknK5kFD3_5pyxis3cli9transform7contextNtB2_16ContextTransform9migrate2d
FN:104,_RNvMNtNtNtCs73RknK5kFD3_5pyxis3cli9transform7contextNtB2_16ContextTransform9normalize
FN:205,_RNvMNtNtNtCs73RknK5kFD3_5pyxis3cli9transform7contextNtB2_16ContextTransform9translate
FN:53,_RNvMNtNtNtCs5Xnii73E9Kd_5pyxis3cli9transform7contextNtB2_16ContextTransform14datum_compense
FN:114,_RNvMNtNtNtCs5Xnii73E9Kd_5pyxis3cli9transform7contextNtB2_16ContextTransform4proj
FN:168,_RNvMNtNtNtCs5Xnii73E9Kd_5pyxis3cli9transform7contextNtB2_16ContextTransform5scale
FN:179,_RNvMNtNtNtCs5Xnii73E9Kd_5pyxis3cli9transform7contextNtB2_16ContextTransform5space
FN:12,_RNvMNtNtNtCs5Xnii73E9Kd_5pyxis3cli9transform7contextNtB2_16ContextTransform6crypto
FN:121,_RNvMNtNtNtCs5Xnii73E9Kd_5pyxis3cli9transform7contextNtB2_16ContextTransform6rotate
FN:60,_RNvMNtNtNtCs5Xnii73E9Kd_5pyxis3cli9transform7contextNtB2_16ContextTransform7lbh2xyz
FN:215,_RNvMNtNtNtCs5Xnii73E9Kd_5pyxis3cli9transform7contextNtB2_16ContextTransform7xyz2lbh
FN:63,_RNvMNtNtNtCs5Xnii73E9Kd_5pyxis3cli9transform7contextNtB2_16ContextTransform9migrate2d
FN:104,_RNvMNtNtNtCs5Xnii73E9Kd_5pyxis3cli9transform7contextNtB2_16ContextTransform9normalize
FN:205,_RNvMNtNtNtCs5Xnii73E9Kd_5pyxis3cli9transform7contextNtB2_16ContextTransform9translate
FNDA:0,_RNvMNtNtNtCs73RknK5kFD3_5pyxis3cli9transform7contextNtB2_16ContextTransform14datum_compense
FNDA:0,_RNvMNtNtNtCs73RknK5kFD3_5pyxis3cli9transform7contextNtB2_16ContextTransform4proj
FNDA:0,_RNvMNtNtNtCs73RknK5kFD3_5pyxis3cli9transform7contextNtB2_16ContextTransform5scale
FNDA:0,_RNvMNtNtNtCs73RknK5kFD3_5pyxis3cli9transform7contextNtB2_16ContextTransform5space
FNDA:0,_RNvMNtNtNtCs73RknK5kFD3_5pyxis3cli9transform7contextNtB2_16ContextTransform6crypto
FNDA:0,_RNvMNtNtNtCs73RknK5kFD3_5pyxis3cli9transform7contextNtB2_16ContextTransform6rotate
FNDA:0,_RNvMNtNtNtCs73RknK5kFD3_5pyxis3cli9transform7contextNtB2_16ContextTransform7lbh2xyz
FNDA:0,_RNvMNtNtNtCs73RknK5kFD3_5pyxis3cli9transform7contextNtB2_16ContextTransform7xyz2lbh
FNDA:0,_RNvMNtNtNtCs73RknK5kFD3_5pyxis3cli9transform7contextNtB2_16ContextTransform9migrate2d
FNDA:0,_RNvMNtNtNtCs73RknK5kFD3_5pyxis3cli9transform7contextNtB2_16ContextTransform9normalize
FNDA:0,_RNvMNtNtNtCs73RknK5kFD3_5pyxis3cli9transform7contextNtB2_16ContextTransform9translate
FNDA:1,_RNvMNtNtNtCs5Xnii73E9Kd_5pyxis3cli9transform7contextNtB2_16ContextTransform14datum_compense
FNDA:4,_RNvMNtNtNtCs5Xnii73E9Kd_5pyxis3cli9transform7contextNtB2_16ContextTransform4proj
FNDA:1,_RNvMNtNtNtCs5Xnii73E9Kd_5pyxis3cli9transform7contextNtB2_16ContextTransform5scale
FNDA:6,_RNvMNtNtNtCs5Xnii73E9Kd_5pyxis3cli9transform7contextNtB2_16ContextTransform5space
FNDA:6,_RNvMNtNtNtCs5Xnii73E9Kd_5pyxis3cli9transform7contextNtB2_16ContextTransform6crypto
FNDA:8,_RNvMNtNtNtCs5Xnii73E9Kd_5pyxis3cli9transform7contextNtB2_16ContextTransform6rotate
FNDA:1,_RNvMNtNtNtCs5Xnii73E9Kd_5pyxis3cli9transform7contextNtB2_16ContextTransform7lbh2xyz
FNDA:1,_RNvMNtNtNtCs5Xnii73E9Kd_5pyxis3cli9transform7contextNtB2_16ContextTransform7xyz2lbh
FNDA:6,_RNvMNtNtNtCs5Xnii73E9Kd_5pyxis3cli9transform7contextNtB2_16ContextTransform9migrate2d
FNDA:1,_RNvMNtNtNtCs5Xnii73E9Kd_5pyxis3cli9transform7contextNtB2_16ContextTransform9normalize
FNDA:1,_RNvMNtNtNtCs5Xnii73E9Kd_5pyxis3cli9transform7contextNtB2_16ContextTransform9translate
FNF:11
FNH:11
DA:12,6
DA:13,6
DA:14,1
DA:15,1
DA:16,1
DA:17,1
DA:18,1
DA:19,1
DA:20,1
DA:21,1
DA:22,1
DA:23,1
DA:24,1
DA:25,1
DA:26,1
DA:27,1
DA:28,1
DA:29,1
DA:30,1
DA:31,1
DA:32,1
DA:33,1
DA:34,1
DA:35,1
DA:36,1
DA:37,1
DA:38,1
DA:39,1
DA:40,1
DA:41,1
DA:42,1
DA:44,1
DA:47,0
DA:48,0
DA:51,6
DA:53,1
DA:54,1
DA:55,1
DA:56,1
DA:57,1
DA:58,1
DA:59,1
DA:60,1
DA:61,1
DA:62,1
DA:63,6
DA:64,6
DA:65,6
DA:66,6
DA:67,6
DA:68,6
DA:69,6
DA:70,6
DA:71,6
DA:72,6
DA:73,6
DA:74,0
DA:77,6
DA:78,6
DA:80,1
DA:83,1
DA:86,1
DA:89,1
DA:92,1
DA:95,1
DA:98,0
DA:99,0
DA:100,0
DA:103,6
DA:104,1
DA:105,1
DA:106,0
DA:107,1
DA:108,1
DA:109,1
DA:110,1
DA:111,1
DA:112,1
DA:113,1
DA:114,4
DA:115,4
DA:116,4
DA:117,4
DA:118,4
DA:119,4
DA:120,4
DA:121,8
DA:122,8
DA:123,8
DA:124,8
DA:125,8
DA:126,8
DA:127,8
DA:128,8
DA:129,8
DA:130,8
DA:131,4
DA:132,4
DA:135,8
DA:136,4
DA:137,1
DA:139,4
DA:140,1
DA:142,2
DA:143,1
DA:145,2
DA:146,1
DA:148,2
DA:149,1
DA:151,1
DA:152,1
DA:153,1
DA:154,1
DA:155,1
DA:156,1
DA:157,1
DA:158,1
DA:159,1
DA:160,1
DA:161,1
DA:162,1
DA:163,1
DA:164,1
DA:165,1
DA:167,8
DA:168,1
DA:169,1
DA:170,0
DA:171,1
DA:172,1
DA:173,1
DA:174,0
DA:175,1
DA:176,1
DA:177,1
DA:178,1
DA:179,6
DA:180,6
DA:182,1
DA:185,1
DA:188,1
DA:191,1
DA:194,1
DA:197,1
DA:200,0
DA:201,0
DA:204,6
DA:205,1
DA:206,1
DA:207,0
DA:208,0
DA:210,1
DA:211,1
DA:212,1
DA:213,1
DA:214,1
DA:215,1
DA:216,1
DA:217,1
BRDA:105,0,0,0
BRDA:105,0,1,1
BRDA:105,1,2,-
BRDA:105,1,3,-
BRDA:105,2,4,-
BRDA:105,2,5,-
BRDA:136,0,0,1
BRDA:136,0,1,3
BRDA:139,0,0,1
BRDA:139,0,1,3
BRDA:142,0,0,1
BRDA:142,0,1,1
BRDA:142,1,2,1
BRDA:142,1,3,0
BRDA:145,0,0,1
BRDA:145,0,1,1
BRDA:145,1,2,1
BRDA:145,1,3,0
BRDA:148,0,0,1
BRDA:148,0,1,1
BRDA:148,1,2,1
BRDA:148,1,3,0
BRDA:169,0,0,0
BRDA:169,0,1,1
BRDA:169,1,2,-
BRDA:169,1,3,-
BRDA:169,2,4,-
BRDA:169,2,5,-
BRDA:172,0,0,1
BRDA:172,0,1,0
BRDA:172,1,2,1
BRDA:172,1,3,0
BRDA:172,2,4,1
BRDA:172,2,5,0
BRDA:206,0,0,0
BRDA:206,0,1,1
BRDA:206,1,2,-
BRDA:206,1,3,-
BRDA:206,2,4,-
BRDA:206,2,5,-
BRF:40
BRH:19
LF:159
LH:146
end_of_record
SF:D:\project\pyxis\crates\pyxis-cli\src\cli\transform\options.rs
FN:14,_RNvXNtNtNtCs73RknK5kFD3_5pyxis3cli9transform7optionsNtB2_12OutputFormatNtNtNtCs8uz6Cvxmpxg_4core3str6traits7FromStr8from_str
FN:41,_RNvXs0_NtNtNtCs73RknK5kFD3_5pyxis3cli9transform7optionsNtB5_10CoordSpaceNtNtNtCs8uz6Cvxmpxg_4core3str6traits7FromStr8from_str
FN:51,_RNvXs1_NtNtNtCs73RknK5kFD3_5pyxis3cli9transform7optionsNtB5_10CoordSpaceNtNtCs8uz6Cvxmpxg_4core3fmt7Display3fmt
FN:69,_RNvXs2_NtNtNtCs73RknK5kFD3_5pyxis3cli9transform7optionsNtB5_11CryptoSpaceNtNtNtCs8uz6Cvxmpxg_4core3str6traits7FromStr8from_str
FN:79,_RNvXs3_NtNtNtCs73RknK5kFD3_5pyxis3cli9transform7optionsNtB5_11CryptoSpaceNtNtCs8uz6Cvxmpxg_4core3fmt7Display3fmt
FN:97,_RNvXs4_NtNtNtCs73RknK5kFD3_5pyxis3cli9transform7optionsNtB5_11RotatePlaneNtNtNtCs8uz6Cvxmpxg_4core3str6traits7FromStr8from_str
FN:108,_RNvXs5_NtNtNtCs73RknK5kFD3_5pyxis3cli9transform7optionsNtB5_11RotatePlaneNtNtCs8uz6Cvxmpxg_4core3fmt7Display3fmt
FN:125,_RNvXs6_NtNtNtCs73RknK5kFD3_5pyxis3cli9transform7optionsNtB5_10RotateUnitNtNtNtCs8uz6Cvxmpxg_4core3str6traits7FromStr8from_str
FN:134,_RNvXs7_NtNtNtCs73RknK5kFD3_5pyxis3cli9transform7optionsNtB5_10RotateUnitNtNtCs8uz6Cvxmpxg_4core3fmt7Display3fmt
FN:151,_RNvXs8_NtNtNtCs73RknK5kFD3_5pyxis3cli9transform7optionsNtB5_15MigrateOption2dNtNtNtCs8uz6Cvxmpxg_4core3str6traits7FromStr8from_str
FN:161,_RNvXs9_NtNtNtCs73RknK5kFD3_5pyxis3cli9transform7optionsNtB5_15MigrateOption2dNtNtCs8uz6Cvxmpxg_4core3fmt7Display3fmt
FN:24,_RNvXs_NtNtNtCs73RknK5kFD3_5pyxis3cli9transform7optionsNtB4_12OutputFormatNtNtCs8uz6Cvxmpxg_4core3fmt7Display3fmt
FN:14,_RNvXNtNtNtCs5Xnii73E9Kd_5pyxis3cli9transform7optionsNtB2_12OutputFormatNtNtNtCs8uz6Cvxmpxg_4core3str6traits7FromStr8from_str
FN:41,_RNvXs0_NtNtNtCs5Xnii73E9Kd_5pyxis3cli9transform7optionsNtB5_10CoordSpaceNtNtNtCs8uz6Cvxmpxg_4core3str6traits7FromStr8from_str
FN:51,_RNvXs1_NtNtNtCs5Xnii73E9Kd_5pyxis3cli9transform7optionsNtB5_10CoordSpaceNtNtCs8uz6Cvxmpxg_4core3fmt7Display3fmt
FN:69,_RNvXs2_NtNtNtCs5Xnii73E9Kd_5pyxis3cli9transform7optionsNtB5_11CryptoSpaceNtNtNtCs8uz6Cvxmpxg_4core3str6traits7FromStr8from_str
FN:79,_RNvXs3_NtNtNtCs5Xnii73E9Kd_5pyxis3cli9transform7optionsNtB5_11CryptoSpaceNtNtCs8uz6Cvxmpxg_4core3fmt7Display3fmt
FN:97,_RNvXs4_NtNtNtCs5Xnii73E9Kd_5pyxis3cli9transform7optionsNtB5_11RotatePlaneNtNtNtCs8uz6Cvxmpxg_4core3str6traits7FromStr8from_str
FN:108,_RNvXs5_NtNtNtCs5Xnii73E9Kd_5pyxis3cli9transform7optionsNtB5_11RotatePlaneNtNtCs8uz6Cvxmpxg_4core3fmt7Display3fmt
FN:125,_RNvXs6_NtNtNtCs5Xnii73E9Kd_5pyxis3cli9transform7optionsNtB5_10RotateUnitNtNtNtCs8uz6Cvxmpxg_4core3str6traits7FromStr8from_str
FN:134,_RNvXs7_NtNtNtCs5Xnii73E9Kd_5pyxis3cli9transform7optionsNtB5_10RotateUnitNtNtCs8uz6Cvxmpxg_4core3fmt7Display3fmt
FN:151,_RNvXs8_NtNtNtCs5Xnii73E9Kd_5pyxis3cli9transform7optionsNtB5_15MigrateOption2dNtNtNtCs8uz6Cvxmpxg_4core3str6traits7FromStr8from_str
FN:161,_RNvXs9_NtNtNtCs5Xnii73E9Kd_5pyxis3cli9transform7optionsNtB5_15MigrateOption2dNtNtCs8uz6Cvxmpxg_4core3fmt7Display3fmt
FN:24,_RNvXs_NtNtNtCs5Xnii73E9Kd_5pyxis3cli9transform7optionsNtB4_12OutputFormatNtNtCs8uz6Cvxmpxg_4core3fmt7Display3fmt
FNDA:0,_RNvXNtNtNtCs73RknK5kFD3_5pyxis3cli9transform7optionsNtB2_12OutputFormatNtNtNtCs8uz6Cvxmpxg_4core3str6traits7FromStr8from_str
FNDA:0,_RNvXs0_NtNtNtCs73RknK5kFD3_5pyxis3cli9transform7optionsNtB5_10CoordSpaceNtNtNtCs8uz6Cvxmpxg_4core3str6traits7FromStr8from_str
FNDA:0,_RNvXs1_NtNtNtCs73RknK5kFD3_5pyxis3cli9transform7optionsNtB5_10CoordSpaceNtNtCs8uz6Cvxmpxg_4core3fmt7Display3fmt
FNDA:0,_RNvXs2_NtNtNtCs73RknK5kFD3_5pyxis3cli9transform7optionsNtB5_11CryptoSpaceNtNtNtCs8uz6Cvxmpxg_4core3str6traits7FromStr8from_str
FNDA:0,_RNvXs3_NtNtNtCs73RknK5kFD3_5pyxis3cli9transform7optionsNtB5_11CryptoSpaceNtNtCs8uz6Cvxmpxg_4core3fmt7Display3fmt
FNDA:0,_RNvXs4_NtNtNtCs73RknK5kFD3_5pyxis3cli9transform7optionsNtB5_11RotatePlaneNtNtNtCs8uz6Cvxmpxg_4core3str6traits7FromStr8from_str
FNDA:0,_RNvXs5_NtNtNtCs73RknK5kFD3_5pyxis3cli9transform7optionsNtB5_11RotatePlaneNtNtCs8uz6Cvxmpxg_4core3fmt7Display3fmt
FNDA:0,_RNvXs6_NtNtNtCs73RknK5kFD3_5pyxis3cli9transform7optionsNtB5_10RotateUnitNtNtNtCs8uz6Cvxmpxg_4core3str6traits7FromStr8from_str
FNDA:0,_RNvXs7_NtNtNtCs73RknK5kFD3_5pyxis3cli9transform7optionsNtB5_10RotateUnitNtNtCs8uz6Cvxmpxg_4core3fmt7Display3fmt
FNDA:0,_RNvXs8_NtNtNtCs73RknK5kFD3_5pyxis3cli9transform7optionsNtB5_15MigrateOption2dNtNtNtCs8uz6Cvxmpxg_4core3str6traits7FromStr8from_str
FNDA:0,_RNvXs9_NtNtNtCs73RknK5kFD3_5pyxis3cli9transform7optionsNtB5_15MigrateOption2dNtNtCs8uz6Cvxmpxg_4core3fmt7Display3fmt
FNDA:0,_RNvXs_NtNtNtCs73RknK5kFD3_5pyxis3cli9transform7optionsNtB4_12OutputFormatNtNtCs8uz6Cvxmpxg_4core3fmt7Display3fmt
FNDA:3,_RNvXNtNtNtCs5Xnii73E9Kd_5pyxis3cli9transform7optionsNtB2_12OutputFormatNtNtNtCs8uz6Cvxmpxg_4core3str6traits7FromStr8from_str
FNDA:12,_RNvXs0_NtNtNtCs5Xnii73E9Kd_5pyxis3cli9transform7optionsNtB5_10CoordSpaceNtNtNtCs8uz6Cvxmpxg_4core3str6traits7FromStr8from_str
FNDA:12,_RNvXs1_NtNtNtCs5Xnii73E9Kd_5pyxis3cli9transform7optionsNtB5_10CoordSpaceNtNtCs8uz6Cvxmpxg_4core3fmt7Display3fmt
FNDA:12,_RNvXs2_NtNtNtCs5Xnii73E9Kd_5pyxis3cli9transform7optionsNtB5_11CryptoSpaceNtNtNtCs8uz6Cvxmpxg_4core3str6traits7FromStr8from_str
FNDA:12,_RNvXs3_NtNtNtCs5Xnii73E9Kd_5pyxis3cli9transform7optionsNtB5_11CryptoSpaceNtNtCs8uz6Cvxmpxg_4core3fmt7Display3fmt
FNDA:8,_RNvXs4_NtNtNtCs5Xnii73E9Kd_5pyxis3cli9transform7optionsNtB5_11RotatePlaneNtNtNtCs8uz6Cvxmpxg_4core3str6traits7FromStr8from_str
FNDA:8,_RNvXs5_NtNtNtCs5Xnii73E9Kd_5pyxis3cli9transform7optionsNtB5_11RotatePlaneNtNtCs8uz6Cvxmpxg_4core3fmt7Display3fmt
FNDA:14,_RNvXs6_NtNtNtCs5Xnii73E9Kd_5pyxis3cli9transform7optionsNtB5_10RotateUnitNtNtNtCs8uz6Cvxmpxg_4core3str6traits7FromStr8from_str
FNDA:14,_RNvXs7_NtNtNtCs5Xnii73E9Kd_5pyxis3cli9transform7optionsNtB5_10RotateUnitNtNtCs8uz6Cvxmpxg_4core3fmt7Display3fmt
FNDA:12,_RNvXs8_NtNtNtCs5Xnii73E9Kd_5pyxis3cli9transform7optionsNtB5_15MigrateOption2dNtNtNtCs8uz6Cvxmpxg_4core3str6traits7FromStr8from_str
FNDA:12,_RNvXs9_NtNtNtCs5Xnii73E9Kd_5pyxis3cli9transform7optionsNtB5_15MigrateOption2dNtNtCs8uz6Cvxmpxg_4core3fmt7Display3fmt
FNDA:36,_RNvXs_NtNtNtCs5Xnii73E9Kd_5pyxis3cli9transform7optionsNtB4_12OutputFormatNtNtCs8uz6Cvxmpxg_4core3fmt7Display3fmt
FNF:12
FNH:12
DA:14,3
DA:15,3
DA:16,3
DA:17,3
DA:18,1
DA:19,0
DA:21,3
DA:24,36
DA:25,36
DA:26,36
DA:27,0
DA:28,0
DA:30,36
DA:41,12
DA:42,12
DA:43,12
DA:44,8
DA:45,4
DA:46,0
DA:48,12
DA:51,12
DA:52,12
DA:53,4
DA:54,4
DA:55,4
DA:57,12
DA:69,12
DA:70,12
DA:71,12
DA:72,8
DA:73,4
DA:74,0
DA:76,12
DA:79,12
DA:80,12
DA:81,4
DA:82,4
DA:83,4
DA:85,12
DA:97,8
DA:98,8
DA:99,8
DA:100,4
DA:101,2
DA:103,0
DA:105,8
DA:108,8
DA:109,8
DA:110,4
DA:111,2
DA:112,2
DA:114,8
DA:125,14
DA:126,14
DA:127,14
DA:128,4
DA:129,0
DA:131,14
DA:134,14
DA:135,14
DA:136,10
DA:137,4
DA:139,14
DA:151,12
DA:152,12
DA:153,12
DA:154,8
DA:155,4
DA:156,0
DA:158,12
DA:161,12
DA:162,12
DA:163,4
DA:164,4
DA:165,4
DA:167,12
BRF:0
BRH:0
LF:76
LH:68
end_of_record
SF:D:\project\pyxis\crates\pyxis-cli\src\cli\transform\output_fn.rs
FN:49,_RNCNvNtNtNtCs73RknK5kFD3_5pyxis3cli9transform9output_fn12output_plain0B9_
FN:62,_RNvNtNtNtCs73RknK5kFD3_5pyxis3cli9transform9output_fn11output_json
FN:14,_RNvNtNtNtCs73RknK5kFD3_5pyxis3cli9transform9output_fn12output_plain
FN:3,_RNvNtNtNtCs73RknK5kFD3_5pyxis3cli9transform9output_fn13output_simple
FN:49,_RNCNvNtNtNtCs5Xnii73E9Kd_5pyxis3cli9transform9output_fn12output_plain0B9_
FN:62,_RNvNtNtNtCs5Xnii73E9Kd_5pyxis3cli9transform9output_fn11output_json
FN:14,_RNvNtNtNtCs5Xnii73E9Kd_5pyxis3cli9transform9output_fn12output_plain
FN:3,_RNvNtNtNtCs5Xnii73E9Kd_5pyxis3cli9transform9output_fn13output_simple
FNDA:0,_RNCNvNtNtNtCs73RknK5kFD3_5pyxis3cli9transform9output_fn12output_plain0B9_
FNDA:0,_RNvNtNtNtCs73RknK5kFD3_5pyxis3cli9transform9output_fn11output_json
FNDA:0,_RNvNtNtNtCs73RknK5kFD3_5pyxis3cli9transform9output_fn12output_plain
FNDA:0,_RNvNtNtNtCs73RknK5kFD3_5pyxis3cli9transform9output_fn13output_simple
FNDA:8,_RNCNvNtNtNtCs5Xnii73E9Kd_5pyxis3cli9transform9output_fn12output_plain0B9_
FNDA:1,_RNvNtNtNtCs5Xnii73E9Kd_5pyxis3cli9transform9output_fn11output_json
FNDA:2,_RNvNtNtNtCs5Xnii73E9Kd_5pyxis3cli9transform9output_fn12output_plain
FNDA:33,_RNvNtNtNtCs5Xnii73E9Kd_5pyxis3cli9transform9output_fn13output_simple
FNF:4
FNH:4
DA:3,33
DA:4,33
DA:5,33
DA:6,33
DA:7,33
DA:8,33
DA:9,33
DA:10,33
DA:11,33
DA:12,33
DA:13,33
DA:14,2
DA:15,2
DA:16,1
DA:17,1
DA:18,1
DA:19,1
DA:20,1
DA:21,1
DA:22,1
DA:23,1
DA:25,2
DA:26,2
DA:27,2
DA:28,2
DA:29,2
DA:30,2
DA:31,2
DA:32,2
DA:33,2
DA:34,2
DA:35,0
DA:36,2
DA:37,2
DA:38,2
DA:39,2
DA:40,2
DA:41,2
DA:42,2
DA:43,2
DA:44,2
DA:45,2
DA:46,2
DA:47,2
DA:48,2
DA:49,8
DA:50,2
DA:51,2
DA:52,2
DA:53,2
DA:54,2
DA:55,2
DA:56,2
DA:57,2
DA:58,2
DA:59,2
DA:61,2
DA:62,1
DA:63,1
DA:64,1
DA:65,1
DA:66,1
BRDA:15,0,0,1
BRDA:15,0,1,1
BRDA:25,0,0,2
BRDA:25,0,1,0
BRF:4
BRH:3
LF:63
LH:62
end_of_record
SF:D:\project\pyxis\crates\pyxis-cli\src\main.rs
FN:3,_RNvCs73RknK5kFD3_5pyxis4main
FN:3,_RNvCs5Xnii73E9Kd_5pyxis4main
FNDA:0,_RNvCs73RknK5kFD3_5pyxis4main
FNDA:36,_RNvCs5Xnii73E9Kd_5pyxis4main
FNF:1
FNH:1
DA:3,36
DA:4,36
DA:5,36
BRF:0
BRH:0
LF:3
LH:3
end_of_record
SF:D:\project\pyxis\crates\pyxis-cli\src\proj_util.rs
FN:7,_RNvNtCs73RknK5kFD3_5pyxis9proj_util17init_proj_builder
FN:7,_RNvNtCs5Xnii73E9Kd_5pyxis9proj_util17init_proj_builder
FNDA:0,_RNvNtCs73RknK5kFD3_5pyxis9proj_util17init_proj_builder
FNDA:4,_RNvNtCs5Xnii73E9Kd_5pyxis9proj_util17init_proj_builder
FNF:1
FNH:1
DA:7,4
DA:8,4
DA:9,4
DA:10,4
DA:11,4
DA:13,0
DA:14,0
DA:15,0
DA:16,0
DA:17,0
DA:20,0
DA:21,0
DA:22,0
DA:24,0
DA:25,0
DA:26,0
DA:27,0
DA:29,4
DA:30,4
BRDA:9,0,0,4
BRDA:9,0,1,0
BRDA:16,0,0,-
BRDA:16,0,1,-
BRF:4
BRH:1
LF:19
LH:7
end_of_record
SF:D:\project\pyxis\crates\pyxis-cuda\src\context.rs
FN:22,_RNCNvNvMs_NtCs7PVR1eCJkv9_10pyxis_cuda7contextNtB8_16PyxisCudaContext6stream6STREAM0Ba_
FN:25,_RNvMs_NtCs7PVR1eCJkv9_10pyxis_cuda7contextNtB4_16PyxisCudaContext10from_slice
FN:15,_RNvMs_NtCs7PVR1eCJkv9_10pyxis_cuda7contextNtB4_16PyxisCudaContext3new
FN:20,_RNvMs_NtCs7PVR1eCJkv9_10pyxis_cuda7contextNtB4_16PyxisCudaContext6stream
FN:9,_RNvXNtCs7PVR1eCJkv9_10pyxis_cuda7contextNtB2_16PyxisCudaContextNtNtCs8uz6Cvxmpxg_4core7default7Default7default
FNDA:1,_RNCNvNvMs_NtCs7PVR1eCJkv9_10pyxis_cuda7contextNtB8_16PyxisCudaContext6stream6STREAM0Ba_
FNDA:2,_RNvMs_NtCs7PVR1eCJkv9_10pyxis_cuda7contextNtB4_16PyxisCudaContext10from_slice
FNDA:1,_RNvMs_NtCs7PVR1eCJkv9_10pyxis_cuda7contextNtB4_16PyxisCudaContext3new
FNDA:1,_RNvMs_NtCs7PVR1eCJkv9_10pyxis_cuda7contextNtB4_16PyxisCudaContext6stream
FNDA:0,_RNvXNtCs7PVR1eCJkv9_10pyxis_cuda7contextNtB2_16PyxisCudaContextNtNtCs8uz6Cvxmpxg_4core7default7Default7default
FNF:5
FNH:4
DA:9,0
DA:10,0
DA:11,0
DA:15,1
DA:16,1
DA:17,1
DA:18,1
DA:19,1
DA:20,1
DA:22,1
DA:23,1
DA:24,1
DA:25,2
DA:26,2
DA:27,2
BRF:0
BRH:0
LF:15
LH:12
end_of_record
SF:D:\project\pyxis\crates\pyxis-cuda\src\datum_compense_cuda.rs
FN:41,_RNvNtNtCs7PVR1eCJkv9_10pyxis_cuda19datum_compense_cuda4tests_24test_datum_compense_cuda
FN:8,_RINvMNtCs7PVR1eCJkv9_10pyxis_cuda19datum_compense_cudaNtNtB5_7context16PyxisCudaContext19datum_compense_cudaINtNtCs5jFUyfTZGOi_5pyxis4misc18DatumCompenseParmsdEEB5_
FNDA:1,_RNvNtNtCs7PVR1eCJkv9_10pyxis_cuda19datum_compense_cuda4tests_24test_datum_compense_cuda
FNDA:1,_RINvMNtCs7PVR1eCJkv9_10pyxis_cuda19datum_compense_cudaNtNtB5_7context16PyxisCudaContext19datum_compense_cudaINtNtCs5jFUyfTZGOi_5pyxis4misc18DatumCompenseParmsdEEB5_
FNF:2
FNH:2
DA:8,1
DA:9,1
DA:10,1
DA:11,1
DA:12,1
DA:13,1
DA:14,1
DA:15,1
DA:16,1
DA:17,1
DA:18,1
DA:19,1
DA:20,1
DA:21,1
DA:22,1
DA:23,1
DA:24,1
DA:25,1
DA:26,1
DA:27,1
DA:28,1
DA:29,1
DA:30,1
DA:31,1
DA:32,1
DA:33,1
DA:41,1
DA:42,1
DA:43,1
DA:44,1
DA:45,1
DA:46,1
DA:47,1
DA:48,1
DA:49,1
DA:50,1
DA:51,1
DA:52,1
DA:53,1
DA:54,1
BRF:0
BRH:0
LF:40
LH:40
end_of_record
SF:D:\project\pyxis\crates\pyxis-py\src\crypto.rs
FN:7,_RNvNtCs7R9DD1F5i3A_8pyxis_py6crypto13get_crypto_fn
FN:60,_RNvNtCs7R9DD1F5i3A_8pyxis_py6crypto9py_crypto
FN:59,_RNvNvMNtCs7R9DD1F5i3A_8pyxis_py6cryptoNtNtB4_9py_crypto7MakeDef9__PYO3_DEF10trampoline
FN:18,_RNCNvNtCs7R9DD1F5i3A_8pyxis_py6crypto13get_crypto_fn0B5_
FN:43,_RNCNvNtCs7R9DD1F5i3A_8pyxis_py6crypto13get_crypto_fns0_0B5_
FN:30,_RNCNvNtCs7R9DD1F5i3A_8pyxis_py6crypto13get_crypto_fns_0B5_
FN:78,_RNCNvNtCs7R9DD1F5i3A_8pyxis_py6crypto9py_crypto0B5_
FNDA:0,_RNvNtCs7R9DD1F5i3A_8pyxis_py6crypto13get_crypto_fn
FNDA:0,_RNvNtCs7R9DD1F5i3A_8pyxis_py6crypto9py_crypto
FNDA:0,_RNvNvMNtCs7R9DD1F5i3A_8pyxis_py6cryptoNtNtB4_9py_crypto7MakeDef9__PYO3_DEF10trampoline
FNDA:0,_RNCNvNtCs7R9DD1F5i3A_8pyxis_py6crypto13get_crypto_fn0B5_
FNDA:0,_RNCNvNtCs7R9DD1F5i3A_8pyxis_py6crypto13get_crypto_fns0_0B5_
FNDA:0,_RNCNvNtCs7R9DD1F5i3A_8pyxis_py6crypto13get_crypto_fns_0B5_
FNDA:0,_RNCNvNtCs7R9DD1F5i3A_8pyxis_py6crypto9py_crypto0B5_
FNF:7
FNH:0
DA:7,0
DA:8,0
DA:9,0
DA:10,0
DA:11,0
DA:12,0
DA:13,0
DA:14,0
DA:15,0
DA:16,0
DA:17,0
DA:18,0
DA:19,0
DA:20,0
DA:21,0
DA:22,0
DA:23,0
DA:24,0
DA:25,0
DA:26,0
DA:27,0
DA:28,0
DA:29,0
DA:30,0
DA:31,0
DA:32,0
DA:33,0
DA:34,0
DA:35,0
DA:36,0
DA:37,0
DA:38,0
DA:39,0
DA:40,0
DA:41,0
DA:42,0
DA:43,0
DA:44,0
DA:45,0
DA:46,0
DA:47,0
DA:48,0
DA:49,0
DA:50,0
DA:51,0
DA:52,0
DA:53,0
DA:54,0
DA:55,0
DA:56,0
DA:58,0
DA:59,0
DA:60,0
DA:61,0
DA:62,0
DA:63,0
DA:64,0
DA:65,0
DA:66,0
DA:67,0
DA:68,0
DA:69,0
DA:70,0
DA:71,0
DA:73,0
DA:74,0
DA:75,0
DA:76,0
DA:77,0
DA:78,0
DA:79,0
DA:80,0
DA:81,0
DA:82,0
DA:83,0
DA:85,0
DA:86,0
DA:87,0
DA:89,0
BRDA:69,0,0,-
BRDA:69,0,1,-
BRDA:82,0,0,-
BRDA:82,0,1,-
BRF:4
BRH:0
LF:87
LH:0
end_of_record
SF:D:\project\pyxis\crates\pyxis-py\src\lib.rs
FN:6,_RNCNvNtCs7R9DD1F5i3A_8pyxis_py8pyxis_py11___pyo3_init0B5_
FN:7,_RNvCs7R9DD1F5i3A_8pyxis_py8pyxis_py
FN:6,_RNvNvMCs7R9DD1F5i3A_8pyxis_pyNtNtB4_8pyxis_py7MakeDef8make_def15___pyo3_pymodule
FNDA:0,_RNCNvNtCs7R9DD1F5i3A_8pyxis_py8pyxis_py11___pyo3_init0B5_
FNDA:0,_RNvCs7R9DD1F5i3A_8pyxis_py8pyxis_py
FNDA:0,_RNvNvMCs7R9DD1F5i3A_8pyxis_pyNtNtB4_8pyxis_py7MakeDef8make_def15___pyo3_pymodule
FNF:2
FNH:0
DA:6,0
DA:7,0
DA:8,0
DA:9,0
DA:12,0
DA:15,0
DA:16,0
DA:17,0
DA:19,0
DA:20,0
BRF:0
BRH:0
LF:10
LH:0
end_of_record
SF:D:\project\pyxis\crates\pyxis-py\src\misc.rs
FN:39,_RNvNtCs7R9DD1F5i3A_8pyxis_py4misc10py_lbh2xyz
FN:78,_RNvNtCs7R9DD1F5i3A_8pyxis_py4misc10py_xyz2lbh
FN:7,_RNvNtCs7R9DD1F5i3A_8pyxis_py4misc17py_datum_compense
FN:6,_RNvNvMNtCs7R9DD1F5i3A_8pyxis_py4miscNtNtB4_17py_datum_compense7MakeDef9__PYO3_DEF10trampoline
FN:77,_RNvNvMs0_NtCs7R9DD1F5i3A_8pyxis_py4miscNtNtB7_10py_xyz2lbh7MakeDef9__PYO3_DEF10trampoline
FN:38,_RNvNvMs_NtCs7R9DD1F5i3A_8pyxis_py4miscNtNtB6_10py_lbh2xyz7MakeDef9__PYO3_DEF10trampoline
FN:61,_RNCNvNtCs7R9DD1F5i3A_8pyxis_py4misc10py_lbh2xyz0B5_
FN:102,_RNCNvNtCs7R9DD1F5i3A_8pyxis_py4misc10py_xyz2lbh0B5_
FN:26,_RNCNvNtCs7R9DD1F5i3A_8pyxis_py4misc17py_datum_compense0B5_
FNDA:0,_RNvNtCs7R9DD1F5i3A_8pyxis_py4misc10py_lbh2xyz
FNDA:0,_RNvNtCs7R9DD1F5i3A_8pyxis_py4misc10py_xyz2lbh
FNDA:0,_RNvNtCs7R9DD1F5i3A_8pyxis_py4misc17py_datum_compense
FNDA:0,_RNvNvMNtCs7R9DD1F5i3A_8pyxis_py4miscNtNtB4_17py_datum_compense7MakeDef9__PYO3_DEF10trampoline
FNDA:0,_RNvNvMs0_NtCs7R9DD1F5i3A_8pyxis_py4miscNtNtB7_10py_xyz2lbh7MakeDef9__PYO3_DEF10trampoline
FNDA:0,_RNvNvMs_NtCs7R9DD1F5i3A_8pyxis_py4miscNtNtB6_10py_lbh2xyz7MakeDef9__PYO3_DEF10trampoline
FNDA:0,_RNCNvNtCs7R9DD1F5i3A_8pyxis_py4misc10py_lbh2xyz0B5_
FNDA:0,_RNCNvNtCs7R9DD1F5i3A_8pyxis_py4misc10py_xyz2lbh0B5_
FNDA:0,_RNCNvNtCs7R9DD1F5i3A_8pyxis_py4misc17py_datum_compense0B5_
FNF:9
FNH:0
DA:6,0
DA:7,0
DA:8,0
DA:9,0
DA:10,0
DA:11,0
DA:12,0
DA:13,0
DA:14,0
DA:15,0
DA:16,0
DA:17,0
DA:18,0
DA:19,0
DA:21,0
DA:22,0
DA:23,0
DA:24,0
DA:25,0
DA:26,0
DA:27,0
DA:28,0
DA:29,0
DA:30,0
DA:31,0
DA:33,0
DA:34,0
DA:35,0
DA:37,0
DA:38,0
DA:39,0
DA:40,0
DA:41,0
DA:42,0
DA:43,0
DA:44,0
DA:45,0
DA:46,0
DA:47,0
DA:48,0
DA:49,0
DA:50,0
DA:51,0
DA:53,0
DA:54,0
DA:55,0
DA:56,0
DA:57,0
DA:58,0
DA:59,0
DA:60,0
DA:61,0
DA:62,0
DA:63,0
DA:64,0
DA:65,0
DA:66,0
DA:67,0
DA:68,0
DA:70,0
DA:72,0
DA:73,0
DA:74,0
DA:76,0
DA:77,0
DA:78,0
DA:79,0
DA:80,0
DA:81,0
DA:82,0
DA:83,0
DA:84,0
DA:85,0
DA:86,0
DA:87,0
DA:88,0
DA:89,0
DA:90,0
DA:91,0
DA:92,0
DA:94,0
DA:95,0
DA:96,0
DA:97,0
DA:98,0
DA:99,0
DA:100,0
DA:101,0
DA:102,0
DA:103,0
DA:104,0
DA:105,0
DA:106,0
DA:107,0
DA:108,0
DA:109,0
DA:111,0
DA:113,0
DA:114,0
DA:115,0
DA:117,0
BRDA:17,0,0,-
BRDA:17,0,1,-
BRDA:30,0,0,-
BRDA:30,0,1,-
BRDA:48,0,0,-
BRDA:48,0,1,-
BRDA:65,0,0,-
BRDA:65,0,1,-
BRDA:89,0,0,-
BRDA:89,0,1,-
BRDA:106,0,0,-
BRDA:106,0,1,-
BRF:12
BRH:0
LF:107
LH:0
end_of_record
SF:D:\project\pyxis\crates\pyxis-py\src\space.rs
FN:54,_RNCNvNtCs7R9DD1F5i3A_8pyxis_py5space8py_space0B5_
FN:7,_RNvNtCs7R9DD1F5i3A_8pyxis_py5space12get_space_fn
FN:32,_RNvNtCs7R9DD1F5i3A_8pyxis_py5space8py_space
FN:31,_RNvNvMNtCs7R9DD1F5i3A_8pyxis_py5spaceNtNtB4_8py_space7MakeDef9__PYO3_DEF10trampoline
FNDA:0,_RNCNvNtCs7R9DD1F5i3A_8pyxis_py5space8py_space0B5_
FNDA:0,_RNvNtCs7R9DD1F5i3A_8pyxis_py5space12get_space_fn
FNDA:0,_RNvNtCs7R9DD1F5i3A_8pyxis_py5space8py_space
FNDA:0,_RNvNvMNtCs7R9DD1F5i3A_8pyxis_py5spaceNtNtB4_8py_space7MakeDef9__PYO3_DEF10trampoline
FNF:4
FNH:0
DA:7,0
DA:8,0
DA:9,0
DA:10,0
DA:12,0
DA:13,0
DA:15,0
DA:16,0
DA:18,0
DA:19,0
DA:21,0
DA:22,0
DA:24,0
DA:25,0
DA:28,0
DA:30,0
DA:31,0
DA:32,0
DA:33,0
DA:34,0
DA:35,0
DA:36,0
DA:37,0
DA:38,0
DA:39,0
DA:40,0
DA:41,0
DA:42,0
DA:43,0
DA:44,0
DA:46,0
DA:47,0
DA:48,0
DA:49,0
DA:50,0
DA:51,0
DA:52,0
DA:53,0
DA:54,0
DA:55,0
DA:56,0
DA:57,0
DA:58,0
DA:59,0
DA:60,0
DA:61,0
DA:63,0
DA:65,0
DA:66,0
DA:67,0
DA:69,0
BRDA:41,0,0,-
BRDA:41,0,1,-
BRDA:58,0,0,-
BRDA:58,0,1,-
BRF:4
BRH:0
LF:53
LH:0
end_of_record
SF:D:\project\pyxis\crates\pyxis\src\angle.rs
FN:12,_RNvNtCshjdOAmE7UUc_5pyxis5angle12angle_to_dms
FN:32,_RNvNtCshjdOAmE7UUc_5pyxis5angle12dms_to_angle
FNDA:0,_RNvNtCshjdOAmE7UUc_5pyxis5angle12angle_to_dms
FNDA:0,_RNvNtCshjdOAmE7UUc_5pyxis5angle12dms_to_angle
FNF:2
FNH:0
DA:12,0
DA:13,0
DA:14,0
DA:15,0
DA:16,0
DA:17,0
DA:18,0
DA:32,0
DA:33,0
DA:34,0
BRF:0
BRH:0
LF:10
LH:0
end_of_record
SF:D:\project\pyxis\crates\pyxis\src\crypto.rs
FN:452,_RNvNtNtCshjdOAmE7UUc_5pyxis6crypto4tests_10test_exact
FN:325,_RINvNtCshjdOAmE7UUc_5pyxis6crypto12crypto_exactdINvB2_13bd09_to_gcj02dEINvB2_13gcj02_to_bd09dEEB4_
FN:325,_RINvNtCshjdOAmE7UUc_5pyxis6crypto12crypto_exactdINvB2_13bd09_to_wgs84dEINvB2_13wgs84_to_bd09dEEB4_
FN:325,_RINvNtCshjdOAmE7UUc_5pyxis6crypto12crypto_exactdINvB2_14gcj02_to_wgs84dEINvB2_14wgs84_to_gcj02dEEB4_
FN:109,_RINvNtCshjdOAmE7UUc_5pyxis6crypto13bd09_to_gcj02dEB4_
FN:175,_RINvNtCshjdOAmE7UUc_5pyxis6crypto13bd09_to_wgs84dEB4_
FN:205,_RINvNtCshjdOAmE7UUc_5pyxis6crypto13gcj02_to_bd09dEB4_
FN:271,_RINvNtCshjdOAmE7UUc_5pyxis6crypto13wgs84_to_bd09dEB4_
FN:145,_RINvNtCshjdOAmE7UUc_5pyxis6crypto14gcj02_to_wgs84dEB4_
FN:241,_RINvNtCshjdOAmE7UUc_5pyxis6crypto14wgs84_to_gcj02dEB4_
FN:420,_RINvNtCshjdOAmE7UUc_5pyxis6crypto18haversine_distancedEB4_
FN:68,_RINvNtCshjdOAmE7UUc_5pyxis6crypto5deltadEB4_
FN:31,_RINvNtCshjdOAmE7UUc_5pyxis6crypto9transformdEB4_
FN:325,_RINvNtCs5jFUyfTZGOi_5pyxis6crypto12crypto_exactdINvB2_13bd09_to_gcj02dEINvB2_13gcj02_to_bd09dEECs5Xnii73E9Kd_5pyxis
FN:325,_RINvNtCs5jFUyfTZGOi_5pyxis6crypto12crypto_exactdINvB2_13bd09_to_wgs84dEINvB2_13wgs84_to_bd09dEECs5Xnii73E9Kd_5pyxis
FN:325,_RINvNtCs5jFUyfTZGOi_5pyxis6crypto12crypto_exactdINvB2_14gcj02_to_wgs84dEINvB2_14wgs84_to_gcj02dEECs5Xnii73E9Kd_5pyxis
FN:109,_RINvNtCs5jFUyfTZGOi_5pyxis6crypto13bd09_to_gcj02dECs5Xnii73E9Kd_5pyxis
FN:175,_RINvNtCs5jFUyfTZGOi_5pyxis6crypto13bd09_to_wgs84dECs5Xnii73E9Kd_5pyxis
FN:205,_RINvNtCs5jFUyfTZGOi_5pyxis6crypto13gcj02_to_bd09dECs5Xnii73E9Kd_5pyxis
FN:271,_RINvNtCs5jFUyfTZGOi_5pyxis6crypto13wgs84_to_bd09dECs5Xnii73E9Kd_5pyxis
FN:145,_RINvNtCs5jFUyfTZGOi_5pyxis6crypto14gcj02_to_wgs84dECs5Xnii73E9Kd_5pyxis
FN:241,_RINvNtCs5jFUyfTZGOi_5pyxis6crypto14wgs84_to_gcj02dECs5Xnii73E9Kd_5pyxis
FN:420,_RINvNtCs5jFUyfTZGOi_5pyxis6crypto18haversine_distancedECs5Xnii73E9Kd_5pyxis
FN:68,_RINvNtCs5jFUyfTZGOi_5pyxis6crypto5deltadECs5Xnii73E9Kd_5pyxis
FN:31,_RINvNtCs5jFUyfTZGOi_5pyxis6crypto9transformdECs5Xnii73E9Kd_5pyxis
FN:325,_RINvNtCs5jFUyfTZGOi_5pyxis6crypto12crypto_exactpppEB4_
FN:109,_RINvNtCs5jFUyfTZGOi_5pyxis6crypto13bd09_to_gcj02pEB4_
FN:175,_RINvNtCs5jFUyfTZGOi_5pyxis6crypto13bd09_to_wgs84pEB4_
FN:205,_RINvNtCs5jFUyfTZGOi_5pyxis6crypto13gcj02_to_bd09pEB4_
FN:271,_RINvNtCs5jFUyfTZGOi_5pyxis6crypto13wgs84_to_bd09pEB4_
FN:145,_RINvNtCs5jFUyfTZGOi_5pyxis6crypto14gcj02_to_wgs84pEB4_
FN:241,_RINvNtCs5jFUyfTZGOi_5pyxis6crypto14wgs84_to_gcj02pEB4_
FN:420,_RINvNtCs5jFUyfTZGOi_5pyxis6crypto18haversine_distancepEB4_
FN:68,_RINvNtCs5jFUyfTZGOi_5pyxis6crypto5deltapEB4_
FN:31,_RINvNtCs5jFUyfTZGOi_5pyxis6crypto9transformpEB4_
FN:325,_RINvNtCs5jFUyfTZGOi_5pyxis6crypto12crypto_exactdINvB2_13bd09_to_gcj02dEINvB2_13gcj02_to_bd09dEECs7R9DD1F5i3A_8pyxis_py
FN:325,_RINvNtCs5jFUyfTZGOi_5pyxis6crypto12crypto_exactdINvB2_13bd09_to_wgs84dEINvB2_13wgs84_to_bd09dEECs7R9DD1F5i3A_8pyxis_py
FN:325,_RINvNtCs5jFUyfTZGOi_5pyxis6crypto12crypto_exactdINvB2_14gcj02_to_wgs84dEINvB2_14wgs84_to_gcj02dEECs7R9DD1F5i3A_8pyxis_py
FN:109,_RINvNtCs5jFUyfTZGOi_5pyxis6crypto13bd09_to_gcj02dECs7R9DD1F5i3A_8pyxis_py
FN:175,_RINvNtCs5jFUyfTZGOi_5pyxis6crypto13bd09_to_wgs84dECs7R9DD1F5i3A_8pyxis_py
FN:205,_RINvNtCs5jFUyfTZGOi_5pyxis6crypto13gcj02_to_bd09dECs7R9DD1F5i3A_8pyxis_py
FN:271,_RINvNtCs5jFUyfTZGOi_5pyxis6crypto13wgs84_to_bd09dECs7R9DD1F5i3A_8pyxis_py
FN:145,_RINvNtCs5jFUyfTZGOi_5pyxis6crypto14gcj02_to_wgs84dECs7R9DD1F5i3A_8pyxis_py
FN:241,_RINvNtCs5jFUyfTZGOi_5pyxis6crypto14wgs84_to_gcj02dECs7R9DD1F5i3A_8pyxis_py
FN:420,_RINvNtCs5jFUyfTZGOi_5pyxis6crypto18haversine_distancedECs7R9DD1F5i3A_8pyxis_py
FN:68,_RINvNtCs5jFUyfTZGOi_5pyxis6crypto5deltadECs7R9DD1F5i3A_8pyxis_py
FN:31,_RINvNtCs5jFUyfTZGOi_5pyxis6crypto9transformdECs7R9DD1F5i3A_8pyxis_py
FNDA:1,_RNvNtNtCshjdOAmE7UUc_5pyxis6crypto4tests_10test_exact
FNDA:10000,_RINvNtCshjdOAmE7UUc_5pyxis6crypto12crypto_exactdINvB2_13bd09_to_gcj02dEINvB2_13gcj02_to_bd09dEEB4_
FNDA:10000,_RINvNtCshjdOAmE7UUc_5pyxis6crypto12crypto_exactdINvB2_13bd09_to_wgs84dEINvB2_13wgs84_to_bd09dEEB4_
FNDA:10000,_RINvNtCshjdOAmE7UUc_5pyxis6crypto12crypto_exactdINvB2_14gcj02_to_wgs84dEINvB2_14wgs84_to_gcj02dEEB4_
FNDA:20000,_RINvNtCshjdOAmE7UUc_5pyxis6crypto13bd09_to_gcj02dEB4_
FNDA:10000,_RINvNtCshjdOAmE7UUc_5pyxis6crypto13bd09_to_wgs84dEB4_
FNDA:2951317,_RINvNtCshjdOAmE7UUc_5pyxis6crypto13gcj02_to_bd09dEB4_
FNDA:1439697,_RINvNtCshjdOAmE7UUc_5pyxis6crypto13wgs84_to_bd09dEB4_
FNDA:20000,_RINvNtCshjdOAmE7UUc_5pyxis6crypto14gcj02_to_wgs84dEB4_
FNDA:3100212,_RINvNtCshjdOAmE7UUc_5pyxis6crypto14wgs84_to_gcj02dEB4_
FNDA:60000,_RINvNtCshjdOAmE7UUc_5pyxis6crypto18haversine_distancedEB4_
FNDA:3120212,_RINvNtCshjdOAmE7UUc_5pyxis6crypto5deltadEB4_
FNDA:3120212,_RINvNtCshjdOAmE7UUc_5pyxis6crypto9transformdEB4_
FNDA:1,_RINvNtCs5jFUyfTZGOi_5pyxis6crypto12crypto_exactdINvB2_13bd09_to_gcj02dEINvB2_13gcj02_to_bd09dEECs5Xnii73E9Kd_5pyxis
FNDA:1,_RINvNtCs5jFUyfTZGOi_5pyxis6crypto12crypto_exactdINvB2_13bd09_to_wgs84dEINvB2_13wgs84_to_bd09dEECs5Xnii73E9Kd_5pyxis
FNDA:1,_RINvNtCs5jFUyfTZGOi_5pyxis6crypto12crypto_exactdINvB2_14gcj02_to_wgs84dEINvB2_14wgs84_to_gcj02dEECs5Xnii73E9Kd_5pyxis
FNDA:2,_RINvNtCs5jFUyfTZGOi_5pyxis6crypto13bd09_to_gcj02dECs5Xnii73E9Kd_5pyxis
FNDA:1,_RINvNtCs5jFUyfTZGOi_5pyxis6crypto13bd09_to_wgs84dECs5Xnii73E9Kd_5pyxis
FNDA:133,_RINvNtCs5jFUyfTZGOi_5pyxis6crypto13gcj02_to_bd09dECs5Xnii73E9Kd_5pyxis
FNDA:72,_RINvNtCs5jFUyfTZGOi_5pyxis6crypto13wgs84_to_bd09dECs5Xnii73E9Kd_5pyxis
FNDA:2,_RINvNtCs5jFUyfTZGOi_5pyxis6crypto14gcj02_to_wgs84dECs5Xnii73E9Kd_5pyxis
FNDA:119,_RINvNtCs5jFUyfTZGOi_5pyxis6crypto14wgs84_to_gcj02dECs5Xnii73E9Kd_5pyxis
FNDA:0,_RINvNtCs5jFUyfTZGOi_5pyxis6crypto18haversine_distancedECs5Xnii73E9Kd_5pyxis
FNDA:121,_RINvNtCs5jFUyfTZGOi_5pyxis6crypto5deltadECs5Xnii73E9Kd_5pyxis
FNDA:121,_RINvNtCs5jFUyfTZGOi_5pyxis6crypto9transformdECs5Xnii73E9Kd_5pyxis
FNDA:0,_RINvNtCs5jFUyfTZGOi_5pyxis6crypto12crypto_exactpppEB4_
FNDA:0,_RINvNtCs5jFUyfTZGOi_5pyxis6crypto13bd09_to_gcj02pEB4_
FNDA:0,_RINvNtCs5jFUyfTZGOi_5pyxis6crypto13bd09_to_wgs84pEB4_
FNDA:0,_RINvNtCs5jFUyfTZGOi_5pyxis6crypto13gcj02_to_bd09pEB4_
FNDA:0,_RINvNtCs5jFUyfTZGOi_5pyxis6crypto13wgs84_to_bd09pEB4_
FNDA:0,_RINvNtCs5jFUyfTZGOi_5pyxis6crypto14gcj02_to_wgs84pEB4_
FNDA:0,_RINvNtCs5jFUyfTZGOi_5pyxis6crypto14wgs84_to_gcj02pEB4_
FNDA:0,_RINvNtCs5jFUyfTZGOi_5pyxis6crypto18haversine_distancepEB4_
FNDA:0,_RINvNtCs5jFUyfTZGOi_5pyxis6crypto5deltapEB4_
FNDA:0,_RINvNtCs5jFUyfTZGOi_5pyxis6crypto9transformpEB4_
FNDA:0,_RINvNtCs5jFUyfTZGOi_5pyxis6crypto12crypto_exactdINvB2_13bd09_to_gcj02dEINvB2_13gcj02_to_bd09dEECs7R9DD1F5i3A_8pyxis_py
FNDA:0,_RINvNtCs5jFUyfTZGOi_5pyxis6crypto12crypto_exactdINvB2_13bd09_to_wgs84dEINvB2_13wgs84_to_bd09dEECs7R9DD1F5i3A_8pyxis_py
FNDA:0,_RINvNtCs5jFUyfTZGOi_5pyxis6crypto12crypto_exactdINvB2_14gcj02_to_wgs84dEINvB2_14wgs84_to_gcj02dEECs7R9DD1F5i3A_8pyxis_py
FNDA:0,_RINvNtCs5jFUyfTZGOi_5pyxis6crypto13bd09_to_gcj02dECs7R9DD1F5i3A_8pyxis_py
FNDA:0,_RINvNtCs5jFUyfTZGOi_5pyxis6crypto13bd09_to_wgs84dECs7R9DD1F5i3A_8pyxis_py
FNDA:0,_RINvNtCs5jFUyfTZGOi_5pyxis6crypto13gcj02_to_bd09dECs7R9DD1F5i3A_8pyxis_py
FNDA:0,_RINvNtCs5jFUyfTZGOi_5pyxis6crypto13wgs84_to_bd09dECs7R9DD1F5i3A_8pyxis_py
FNDA:0,_RINvNtCs5jFUyfTZGOi_5pyxis6crypto14gcj02_to_wgs84dECs7R9DD1F5i3A_8pyxis_py
FNDA:0,_RINvNtCs5jFUyfTZGOi_5pyxis6crypto14wgs84_to_gcj02dECs7R9DD1F5i3A_8pyxis_py
FNDA:0,_RINvNtCs5jFUyfTZGOi_5pyxis6crypto18haversine_distancedECs7R9DD1F5i3A_8pyxis_py
FNDA:0,_RINvNtCs5jFUyfTZGOi_5pyxis6crypto5deltadECs7R9DD1F5i3A_8pyxis_py
FNDA:0,_RINvNtCs5jFUyfTZGOi_5pyxis6crypto9transformdECs7R9DD1F5i3A_8pyxis_py
FNF:11
FNH:11
DA:31,3120333
DA:32,3120333
DA:33,3120333
DA:34,3120333
DA:35,3120333
DA:36,3120333
DA:37,3120333
DA:38,3120333
DA:39,3120333
DA:40,3120333
DA:41,3120333
DA:42,3120333
DA:43,3120333
DA:44,3120333
DA:45,3120333
DA:46,3120333
DA:47,3120333
DA:48,3120333
DA:49,3120333
DA:50,3120333
DA:51,3120333
DA:52,3120333
DA:53,3120333
DA:54,3120333
DA:55,3120333
DA:56,3120333
DA:57,3120333
DA:58,3120333
DA:59,3120333
DA:60,3120333
DA:61,3120333
DA:62,3120333
DA:63,3120333
DA:64,3120333
DA:65,3120333
DA:66,3120333
DA:68,3120333
DA:69,3120333
DA:70,3120333
DA:71,3120333
DA:72,3120333
DA:73,3120333
DA:74,3120333
DA:75,3120333
DA:76,3120333
DA:77,3120333
DA:78,3120333
DA:79,3120333
DA:80,3120333
DA:81,3120333
DA:82,3120333
DA:83,3120333
DA:84,3120333
DA:85,3120333
DA:109,20002
DA:110,20002
DA:111,20002
DA:112,20002
DA:113,20002
DA:114,20002
DA:115,20002
DA:116,20002
DA:117,20002
DA:118,20002
DA:119,20002
DA:120,20002
DA:121,20002
DA:145,20002
DA:146,20002
DA:147,20002
DA:148,20002
DA:149,20002
DA:150,20002
DA:151,20002
DA:175,10001
DA:176,10001
DA:177,10001
DA:178,10001
DA:179,10001
DA:180,10001
DA:181,10001
DA:205,2951450
DA:206,2951450
DA:207,2951450
DA:208,2951450
DA:209,2951450
DA:210,2951450
DA:211,2951450
DA:212,2951450
DA:213,2951450
DA:214,2951450
DA:215,2951450
DA:216,2951450
DA:241,3100331
DA:242,3100331
DA:243,3100331
DA:244,3100331
DA:245,3100331
DA:246,3100331
DA:247,3100331
DA:271,1439769
DA:272,1439769
DA:273,1439769
DA:274,1439769
DA:275,1439769
DA:276,1439769
DA:277,1439769
DA:325,30003
DA:326,30003
DA:327,30003
DA:328,30003
DA:329,30003
DA:330,30003
DA:331,30003
DA:332,30003
DA:333,30003
DA:334,30003
DA:335,30003
DA:336,30003
DA:337,30003
DA:338,30003
DA:339,30003
DA:340,30003
DA:341,30003
DA:342,30003
DA:343,30003
DA:344,30003
DA:345,30003
DA:346,30003
DA:347,30003
DA:348,30003
DA:350,4592009
DA:351,4592009
DA:352,4592009
DA:353,4592009
DA:354,4592009
DA:355,4592009
DA:356,4592009
DA:357,4592009
DA:358,4592009
DA:359,4592009
DA:360,4592009
DA:361,4592009
DA:362,4592009
DA:363,4592009
DA:364,4592009
DA:365,4592009
DA:366,0
DA:367,0
DA:369,4592009
DA:370,2126
DA:371,4589883
DA:374,0
DA:375,0
DA:376,0
DA:377,0
DA:378,0
DA:381,4592009
DA:382,27877
DA:383,27877
DA:385,4564132
DA:386,4564132
DA:387,4564132
DA:388,4564132
DA:389,647686
DA:390,2059753
DA:391,635910
DA:392,635910
DA:393,635910
DA:394,635910
DA:395,1220783
DA:396,1220783
DA:397,1220783
DA:398,1220783
DA:400,4564132
DA:401,1180139
DA:402,1722531
DA:403,650644
DA:404,650644
DA:405,650644
DA:406,650644
DA:407,1010818
DA:408,1010818
DA:409,1010818
DA:410,1010818
DA:413,4564132
DA:414,4564132
DA:417,30003
DA:418,30003
DA:420,60000
DA:421,60000
DA:422,60000
DA:423,60000
DA:424,60000
DA:425,60000
DA:426,60000
DA:427,60000
DA:428,60000
DA:429,60000
DA:430,60000
DA:431,60000
DA:432,60000
DA:433,60000
DA:434,60000
DA:435,60000
DA:436,60000
DA:437,60000
DA:452,1
DA:453,1
DA:454,1
DA:455,1
DA:456,1
DA:457,1
DA:458,1
DA:459,1
DA:460,1
DA:461,1
DA:462,1
DA:463,1
DA:464,1
DA:465,10000
DA:466,10000
DA:467,10000
DA:468,10000
DA:469,10000
DA:470,10000
DA:471,10000
DA:472,10000
DA:473,10000
DA:474,10000
DA:475,10000
DA:476,10000
DA:477,10000
DA:478,10000
DA:479,10000
DA:480,10000
DA:481,10000
DA:483,0
DA:484,0
DA:485,0
DA:486,0
DA:487,0
DA:488,0
DA:489,0
DA:490,0
DA:491,0
DA:492,0
DA:493,10000
DA:494,10000
DA:495,10000
DA:496,10000
DA:497,10000
DA:498,10000
DA:499,10000
DA:500,10000
DA:501,10000
DA:502,0
DA:503,0
DA:504,10000
DA:507,10000
DA:508,10000
DA:509,10000
DA:510,10000
DA:511,10000
DA:512,10000
DA:513,10000
DA:514,10000
DA:515,10000
DA:516,10000
DA:518,0
DA:519,0
DA:520,0
DA:521,0
DA:522,0
DA:523,0
DA:524,0
DA:525,0
DA:526,0
DA:527,0
DA:528,10000
DA:529,10000
DA:530,10000
DA:531,10000
DA:532,10000
DA:533,10000
DA:534,10000
DA:535,10000
DA:536,10000
DA:537,0
DA:538,0
DA:539,10000
DA:542,10000
DA:543,10000
DA:544,10000
DA:545,10000
DA:546,10000
DA:547,10000
DA:548,10000
DA:549,10000
DA:550,10000
DA:551,10000
DA:553,0
DA:554,0
DA:555,0
DA:556,0
DA:557,0
DA:558,0
DA:559,0
DA:560,0
DA:561,0
DA:562,0
DA:563,10000
DA:564,10000
DA:565,10000
DA:566,10000
DA:567,10000
DA:568,10000
DA:569,10000
DA:570,10000
DA:571,10000
DA:572,0
DA:573,0
DA:574,10000
DA:577,1
DA:578,1
DA:579,1
DA:580,1
DA:581,1
BRDA:369,0,0,0
BRDA:369,0,1,46
BRDA:369,1,2,693
BRDA:369,1,3,1510927
BRDA:369,2,4,0
BRDA:369,2,5,71
BRDA:369,3,6,0
BRDA:369,3,7,60
BRDA:369,4,8,501
BRDA:369,4,9,1429196
BRDA:369,5,10,932
BRDA:369,5,11,1649583
BRDA:369,6,12,-
BRDA:369,6,13,-
BRDA:369,7,14,-
BRDA:369,7,15,-
BRDA:369,8,16,-
BRDA:369,8,17,-
BRDA:376,0,0,-
BRDA:376,0,1,-
BRDA:376,1,2,-
BRDA:376,1,3,-
BRDA:376,2,4,-
BRDA:376,2,5,-
BRDA:376,3,6,-
BRDA:376,3,7,-
BRDA:376,4,8,-
BRDA:376,4,9,-
BRDA:376,5,10,-
BRDA:376,5,11,-
BRDA:376,6,12,-
BRDA:376,6,13,-
BRDA:376,7,14,-
BRDA:376,7,15,-
BRDA:376,8,16,-
BRDA:376,8,17,-
BRDA:381,0,0,173528
BRDA:381,0,1,1338092
BRDA:381,1,2,1
BRDA:381,1,3,45
BRDA:381,2,4,1
BRDA:381,2,5,70
BRDA:381,3,6,125822
BRDA:381,3,7,1303875
BRDA:381,4,8,265972
BRDA:381,4,9,1384543
BRDA:381,5,10,1
BRDA:381,5,11,59
BRDA:381,6,12,-
BRDA:381,6,13,-
BRDA:381,7,14,-
BRDA:381,7,15,-
BRDA:381,8,16,-
BRDA:381,8,17,-
BRDA:381,9,18,9499
BRDA:381,9,19,116323
BRDA:381,10,20,9068
BRDA:381,10,21,256904
BRDA:381,11,22,-
BRDA:381,11,23,-
BRDA:381,12,24,1
BRDA:381,12,25,0
BRDA:381,13,26,-
BRDA:381,13,27,-
BRDA:381,14,28,1
BRDA:381,14,29,0
BRDA:381,15,30,1
BRDA:381,15,31,0
BRDA:381,16,32,9307
BRDA:381,16,33,164221
BRDA:381,17,34,-
BRDA:381,17,35,-
BRDA:463,0,0,0
BRDA:463,0,1,1
BRDA:481,0,0,0
BRDA:481,0,1,10000
BRDA:481,1,2,0
BRDA:481,1,3,10000
BRDA:501,0,0,0
BRDA:501,0,1,10000
BRDA:516,0,0,0
BRDA:516,0,1,10000
BRDA:516,1,2,0
BRDA:516,1,3,10000
BRDA:536,0,0,0
BRDA:536,0,1,10000
BRDA:551,0,0,0
BRDA:551,0,1,10000
BRDA:551,1,2,0
BRDA:551,1,3,10000
BRDA:571,0,0,0
BRDA:571,0,1,10000
BRF:28
BRH:16
LF:328
LH:285
end_of_record
SF:D:\project\pyxis\crates\pyxis\src\ellipsoid.rs
FN:144,_RNvMNtCshjdOAmE7UUc_5pyxis9ellipsoidINtB2_9EllipsoiddE13eccentricity2B4_
FN:129,_RNvMNtCshjdOAmE7UUc_5pyxis9ellipsoidINtB2_9EllipsoiddE15semi_major_axisB4_
FN:59,_RNvMNtCshjdOAmE7UUc_5pyxis9ellipsoidINtB2_9EllipsoiddE24from_semi_major_and_invfB4_
FN:59,_RNvMNtCshjdOAmE7UUc_5pyxis9ellipsoidINtB2_9EllipsoidfE24from_semi_major_and_invfB4_
FN:149,_RNvMNtCshjdOAmE7UUc_5pyxis9ellipsoidINtB2_9EllipsoidpE10flatteningB4_
FN:139,_RNvMNtCshjdOAmE7UUc_5pyxis9ellipsoidINtB2_9EllipsoidpE12eccentricityB4_
FN:109,_RNvMNtCshjdOAmE7UUc_5pyxis9ellipsoidINtB2_9EllipsoidpE14from_semi_axisB4_
FN:134,_RNvMNtCshjdOAmE7UUc_5pyxis9ellipsoidINtB2_9EllipsoidpE15semi_minor_axisB4_
FN:154,_RNvMNtCshjdOAmE7UUc_5pyxis9ellipsoidINtB2_9EllipsoidpE18inverse_flatteningB4_
FN:144,_RNvMNtCs5jFUyfTZGOi_5pyxis9ellipsoidINtB2_9EllipsoiddE13eccentricity2Cs5Xnii73E9Kd_5pyxis
FN:129,_RNvMNtCs5jFUyfTZGOi_5pyxis9ellipsoidINtB2_9EllipsoiddE15semi_major_axisCs5Xnii73E9Kd_5pyxis
FN:59,_RNvMNtCs5jFUyfTZGOi_5pyxis9ellipsoidINtB2_9EllipsoiddE24from_semi_major_and_invfB4_
FN:59,_RNvMNtCs5jFUyfTZGOi_5pyxis9ellipsoidINtB2_9EllipsoidfE24from_semi_major_and_invfB4_
FN:149,_RNvMNtCs5jFUyfTZGOi_5pyxis9ellipsoidINtB2_9EllipsoidpE10flatteningB4_
FN:139,_RNvMNtCs5jFUyfTZGOi_5pyxis9ellipsoidINtB2_9EllipsoidpE12eccentricityB4_
FN:144,_RNvMNtCs5jFUyfTZGOi_5pyxis9ellipsoidINtB2_9EllipsoidpE13eccentricity2B4_
FN:109,_RNvMNtCs5jFUyfTZGOi_5pyxis9ellipsoidINtB2_9EllipsoidpE14from_semi_axisB4_
FN:129,_RNvMNtCs5jFUyfTZGOi_5pyxis9ellipsoidINtB2_9EllipsoidpE15semi_major_axisB4_
FN:134,_RNvMNtCs5jFUyfTZGOi_5pyxis9ellipsoidINtB2_9EllipsoidpE15semi_minor_axisB4_
FN:154,_RNvMNtCs5jFUyfTZGOi_5pyxis9ellipsoidINtB2_9EllipsoidpE18inverse_flatteningB4_
FN:144,_RNvMNtCs5jFUyfTZGOi_5pyxis9ellipsoidINtB2_9EllipsoiddE13eccentricity2Cs7R9DD1F5i3A_8pyxis_py
FN:129,_RNvMNtCs5jFUyfTZGOi_5pyxis9ellipsoidINtB2_9EllipsoiddE15semi_major_axisCs7R9DD1F5i3A_8pyxis_py
FNDA:3120212,_RNvMNtCshjdOAmE7UUc_5pyxis9ellipsoidINtB2_9EllipsoiddE13eccentricity2B4_
FNDA:3180212,_RNvMNtCshjdOAmE7UUc_5pyxis9ellipsoidINtB2_9EllipsoiddE15semi_major_axisB4_
FNDA:2,_RNvMNtCshjdOAmE7UUc_5pyxis9ellipsoidINtB2_9EllipsoiddE24from_semi_major_and_invfB4_
FNDA:0,_RNvMNtCshjdOAmE7UUc_5pyxis9ellipsoidINtB2_9EllipsoidfE24from_semi_major_and_invfB4_
FNDA:0,_RNvMNtCshjdOAmE7UUc_5pyxis9ellipsoidINtB2_9EllipsoidpE10flatteningB4_
FNDA:0,_RNvMNtCshjdOAmE7UUc_5pyxis9ellipsoidINtB2_9EllipsoidpE12eccentricityB4_
FNDA:0,_RNvMNtCshjdOAmE7UUc_5pyxis9ellipsoidINtB2_9EllipsoidpE14from_semi_axisB4_
FNDA:0,_RNvMNtCshjdOAmE7UUc_5pyxis9ellipsoidINtB2_9EllipsoidpE15semi_minor_axisB4_
FNDA:0,_RNvMNtCshjdOAmE7UUc_5pyxis9ellipsoidINtB2_9EllipsoidpE18inverse_flatteningB4_
FNDA:123,_RNvMNtCs5jFUyfTZGOi_5pyxis9ellipsoidINtB2_9EllipsoiddE13eccentricity2Cs5Xnii73E9Kd_5pyxis
FNDA:123,_RNvMNtCs5jFUyfTZGOi_5pyxis9ellipsoidINtB2_9EllipsoiddE15semi_major_axisCs5Xnii73E9Kd_5pyxis
FNDA:18,_RNvMNtCs5jFUyfTZGOi_5pyxis9ellipsoidINtB2_9EllipsoiddE24from_semi_major_and_invfB4_
FNDA:0,_RNvMNtCs5jFUyfTZGOi_5pyxis9ellipsoidINtB2_9EllipsoidfE24from_semi_major_and_invfB4_
FNDA:0,_RNvMNtCs5jFUyfTZGOi_5pyxis9ellipsoidINtB2_9EllipsoidpE10flatteningB4_
FNDA:0,_RNvMNtCs5jFUyfTZGOi_5pyxis9ellipsoidINtB2_9EllipsoidpE12eccentricityB4_
FNDA:0,_RNvMNtCs5jFUyfTZGOi_5pyxis9ellipsoidINtB2_9EllipsoidpE13eccentricity2B4_
FNDA:0,_RNvMNtCs5jFUyfTZGOi_5pyxis9ellipsoidINtB2_9EllipsoidpE14from_semi_axisB4_
FNDA:0,_RNvMNtCs5jFUyfTZGOi_5pyxis9ellipsoidINtB2_9EllipsoidpE15semi_major_axisB4_
FNDA:0,_RNvMNtCs5jFUyfTZGOi_5pyxis9ellipsoidINtB2_9EllipsoidpE15semi_minor_axisB4_
FNDA:0,_RNvMNtCs5jFUyfTZGOi_5pyxis9ellipsoidINtB2_9EllipsoidpE18inverse_flatteningB4_
FNDA:0,_RNvMNtCs5jFUyfTZGOi_5pyxis9ellipsoidINtB2_9EllipsoiddE13eccentricity2Cs7R9DD1F5i3A_8pyxis_py
FNDA:0,_RNvMNtCs5jFUyfTZGOi_5pyxis9ellipsoidINtB2_9EllipsoiddE15semi_major_axisCs7R9DD1F5i3A_8pyxis_py
FNF:8
FNH:3
DA:59,20
DA:60,20
DA:61,20
DA:62,20
DA:63,20
DA:64,20
DA:65,20
DA:66,20
DA:67,20
DA:68,20
DA:69,20
DA:70,20
DA:71,20
DA:72,20
DA:73,20
DA:109,0
DA:110,0
DA:111,0
DA:112,0
DA:113,0
DA:114,0
DA:115,0
DA:116,0
DA:117,0
DA:118,0
DA:119,0
DA:120,0
DA:121,0
DA:122,0
DA:123,0
DA:124,0
DA:125,0
DA:126,0
DA:127,0
DA:129,3180335
DA:130,3180335
DA:131,3180335
DA:134,0
DA:135,0
DA:136,0
DA:139,0
DA:140,0
DA:141,0
DA:144,3120335
DA:145,3120335
DA:146,3120335
DA:149,0
DA:150,0
DA:151,0
DA:154,0
DA:155,0
DA:156,0
BRF:0
BRH:0
LF:52
LH:21
end_of_record
SF:D:\project\pyxis\crates\pyxis\src\linear.rs
FN:31,_RINvNtCshjdOAmE7UUc_5pyxis6linear16rotate_matrix_2dpEB4_
FN:51,_RINvNtCshjdOAmE7UUc_5pyxis6linear9rotate_2dpEB4_
FN:31,_RINvNtCs5jFUyfTZGOi_5pyxis6linear16rotate_matrix_2ddECs5Xnii73E9Kd_5pyxis
FN:51,_RINvNtCs5jFUyfTZGOi_5pyxis6linear9rotate_2ddECs5Xnii73E9Kd_5pyxis
FN:31,_RINvNtCs5jFUyfTZGOi_5pyxis6linear16rotate_matrix_2dpEB4_
FN:51,_RINvNtCs5jFUyfTZGOi_5pyxis6linear9rotate_2dpEB4_
FNDA:0,_RINvNtCshjdOAmE7UUc_5pyxis6linear16rotate_matrix_2dpEB4_
FNDA:0,_RINvNtCshjdOAmE7UUc_5pyxis6linear9rotate_2dpEB4_
FNDA:14,_RINvNtCs5jFUyfTZGOi_5pyxis6linear16rotate_matrix_2ddECs5Xnii73E9Kd_5pyxis
FNDA:3,_RINvNtCs5jFUyfTZGOi_5pyxis6linear9rotate_2ddECs5Xnii73E9Kd_5pyxis
FNDA:0,_RINvNtCs5jFUyfTZGOi_5pyxis6linear16rotate_matrix_2dpEB4_
FNDA:0,_RINvNtCs5jFUyfTZGOi_5pyxis6linear9rotate_2dpEB4_
FNF:2
FNH:2
DA:31,14
DA:32,14
DA:33,14
DA:34,14
DA:35,14
DA:36,14
DA:37,14
DA:38,14
DA:39,14
DA:51,3
DA:52,3
DA:53,3
DA:54,3
DA:55,3
DA:56,3
DA:57,3
DA:58,3
BRF:0
BRH:0
LF:17
LH:17
end_of_record
SF:D:\project\pyxis\crates\pyxis\src\migrate.rs
FN:36,_RINvNtCshjdOAmE7UUc_5pyxis7migrate6abs_2dpEB4_
FN:11,_RINvNtCshjdOAmE7UUc_5pyxis7migrate6rel_2dpEB4_
FN:59,_RINvNtCshjdOAmE7UUc_5pyxis7migrate9origin_2dpEB4_
FN:36,_RINvNtCs5jFUyfTZGOi_5pyxis7migrate6abs_2ddECs5Xnii73E9Kd_5pyxis
FN:11,_RINvNtCs5jFUyfTZGOi_5pyxis7migrate6rel_2ddECs5Xnii73E9Kd_5pyxis
FN:59,_RINvNtCs5jFUyfTZGOi_5pyxis7migrate9origin_2ddECs5Xnii73E9Kd_5pyxis
FN:36,_RINvNtCs5jFUyfTZGOi_5pyxis7migrate6abs_2dpEB4_
FN:11,_RINvNtCs5jFUyfTZGOi_5pyxis7migrate6rel_2dpEB4_
FN:59,_RINvNtCs5jFUyfTZGOi_5pyxis7migrate9origin_2dpEB4_
FNDA:0,_RINvNtCshjdOAmE7UUc_5pyxis7migrate6abs_2dpEB4_
FNDA:0,_RINvNtCshjdOAmE7UUc_5pyxis7migrate6rel_2dpEB4_
FNDA:0,_RINvNtCshjdOAmE7UUc_5pyxis7migrate9origin_2dpEB4_
FNDA:2,_RINvNtCs5jFUyfTZGOi_5pyxis7migrate6abs_2ddECs5Xnii73E9Kd_5pyxis
FNDA:2,_RINvNtCs5jFUyfTZGOi_5pyxis7migrate6rel_2ddECs5Xnii73E9Kd_5pyxis
FNDA:2,_RINvNtCs5jFUyfTZGOi_5pyxis7migrate9origin_2ddECs5Xnii73E9Kd_5pyxis
FNDA:0,_RINvNtCs5jFUyfTZGOi_5pyxis7migrate6abs_2dpEB4_
FNDA:0,_RINvNtCs5jFUyfTZGOi_5pyxis7migrate6rel_2dpEB4_
FNDA:0,_RINvNtCs5jFUyfTZGOi_5pyxis7migrate9origin_2dpEB4_
FNF:3
FNH:3
DA:11,2
DA:12,2
DA:13,2
DA:14,2
DA:15,2
DA:16,2
DA:17,2
DA:18,2
DA:19,2
DA:20,2
DA:21,2
DA:22,2
DA:23,2
DA:24,2
DA:25,2
DA:26,2
DA:27,2
DA:36,2
DA:37,2
DA:38,2
DA:39,2
DA:40,2
DA:41,2
DA:42,2
DA:43,2
DA:44,2
DA:45,2
DA:46,2
DA:47,2
DA:48,2
DA:49,2
DA:50,2
DA:59,2
DA:60,2
DA:61,2
DA:62,2
DA:63,2
DA:64,2
DA:65,2
DA:66,2
DA:67,2
BRF:0
BRH:0
LF:41
LH:41
end_of_record
SF:D:\project\pyxis\crates\pyxis\src\misc.rs
FN:56,_RINvNtCshjdOAmE7UUc_5pyxis4misc14datum_compenseppEB4_
FN:98,_RINvNtCshjdOAmE7UUc_5pyxis4misc7lbh2xyzpEB4_
FN:157,_RINvNtCshjdOAmE7UUc_5pyxis4misc7xyz2lbhpEB4_
FN:13,_RNvMNtCshjdOAmE7UUc_5pyxis4miscINtB2_18DatumCompenseParmspE3newB4_
FN:20,_RNvXININtCshjdOAmE7UUc_5pyxis4miscs_0pEINtB5_18DatumCompenseParmspEINtB5_19IDatumCompenseParmspE2x0B7_
FN:23,_RNvXININtCshjdOAmE7UUc_5pyxis4miscs_0pEINtB5_18DatumCompenseParmspEINtB5_19IDatumCompenseParmspE2y0B7_
FN:26,_RNvXININtCshjdOAmE7UUc_5pyxis4miscs_0pEINtB5_18DatumCompenseParmspEINtB5_19IDatumCompenseParmspE6factorB7_
FN:56,_RINvNtCs5jFUyfTZGOi_5pyxis4misc14datum_compensedINtB2_18DatumCompenseParmsdEECs5Xnii73E9Kd_5pyxis
FN:98,_RINvNtCs5jFUyfTZGOi_5pyxis4misc7lbh2xyzdECs5Xnii73E9Kd_5pyxis
FN:157,_RINvNtCs5jFUyfTZGOi_5pyxis4misc7xyz2lbhdECs5Xnii73E9Kd_5pyxis
FN:13,_RNvMNtCs5jFUyfTZGOi_5pyxis4miscINtB2_18DatumCompenseParmsdE3newCs5Xnii73E9Kd_5pyxis
FN:20,_RNvXs_NtCs5jFUyfTZGOi_5pyxis4miscINtB4_18DatumCompenseParmsdEINtB4_19IDatumCompenseParmsdE2x0Cs5Xnii73E9Kd_5pyxis
FN:23,_RNvXs_NtCs5jFUyfTZGOi_5pyxis4miscINtB4_18DatumCompenseParmsdEINtB4_19IDatumCompenseParmsdE2y0Cs5Xnii73E9Kd_5pyxis
FN:26,_RNvXs_NtCs5jFUyfTZGOi_5pyxis4miscINtB4_18DatumCompenseParmsdEINtB4_19IDatumCompenseParmsdE6factorCs5Xnii73E9Kd_5pyxis
FN:56,_RINvNtCs5jFUyfTZGOi_5pyxis4misc14datum_compenseppEB4_
FN:98,_RINvNtCs5jFUyfTZGOi_5pyxis4misc7lbh2xyzpEB4_
FN:157,_RINvNtCs5jFUyfTZGOi_5pyxis4misc7xyz2lbhpEB4_
FN:13,_RNvMNtCs5jFUyfTZGOi_5pyxis4miscINtB2_18DatumCompenseParmspE3newB4_
FN:20,_RNvXININtCs5jFUyfTZGOi_5pyxis4miscs_0pEINtB5_18DatumCompenseParmspEINtB5_19IDatumCompenseParmspE2x0B7_
FN:23,_RNvXININtCs5jFUyfTZGOi_5pyxis4miscs_0pEINtB5_18DatumCompenseParmspEINtB5_19IDatumCompenseParmspE2y0B7_
FN:26,_RNvXININtCs5jFUyfTZGOi_5pyxis4miscs_0pEINtB5_18DatumCompenseParmspEINtB5_19IDatumCompenseParmspE6factorB7_
FN:13,_RNvMNtCs5jFUyfTZGOi_5pyxis4miscINtB2_18DatumCompenseParmsdE3newCs7PVR1eCJkv9_10pyxis_cuda
FN:20,_RNvXs_NtCs5jFUyfTZGOi_5pyxis4miscINtB4_18DatumCompenseParmsdEINtB4_19IDatumCompenseParmsdE2x0Cs7PVR1eCJkv9_10pyxis_cuda
FN:23,_RNvXs_NtCs5jFUyfTZGOi_5pyxis4miscINtB4_18DatumCompenseParmsdEINtB4_19IDatumCompenseParmsdE2y0Cs7PVR1eCJkv9_10pyxis_cuda
FN:26,_RNvXs_NtCs5jFUyfTZGOi_5pyxis4miscINtB4_18DatumCompenseParmsdEINtB4_19IDatumCompenseParmsdE6factorCs7PVR1eCJkv9_10pyxis_cuda
FN:56,_RINvNtCs5jFUyfTZGOi_5pyxis4misc14datum_compensedINtB2_18DatumCompenseParmsdEECs7R9DD1F5i3A_8pyxis_py
FN:98,_RINvNtCs5jFUyfTZGOi_5pyxis4misc7lbh2xyzdECs7R9DD1F5i3A_8pyxis_py
FN:157,_RINvNtCs5jFUyfTZGOi_5pyxis4misc7xyz2lbhdECs7R9DD1F5i3A_8pyxis_py
FN:13,_RNvMNtCs5jFUyfTZGOi_5pyxis4miscINtB2_18DatumCompenseParmsdE3newCs7R9DD1F5i3A_8pyxis_py
FN:20,_RNvXs_NtCs5jFUyfTZGOi_5pyxis4miscINtB4_18DatumCompenseParmsdEINtB4_19IDatumCompenseParmsdE2x0Cs7R9DD1F5i3A_8pyxis_py
FN:23,_RNvXs_NtCs5jFUyfTZGOi_5pyxis4miscINtB4_18DatumCompenseParmsdEINtB4_19IDatumCompenseParmsdE2y0Cs7R9DD1F5i3A_8pyxis_py
FN:26,_RNvXs_NtCs5jFUyfTZGOi_5pyxis4miscINtB4_18DatumCompenseParmsdEINtB4_19IDatumCompenseParmsdE6factorCs7R9DD1F5i3A_8pyxis_py
FNDA:0,_RINvNtCshjdOAmE7UUc_5pyxis4misc14datum_compenseppEB4_
FNDA:0,_RINvNtCshjdOAmE7UUc_5pyxis4misc7lbh2xyzpEB4_
FNDA:0,_RINvNtCshjdOAmE7UUc_5pyxis4misc7xyz2lbhpEB4_
FNDA:0,_RNvMNtCshjdOAmE7UUc_5pyxis4miscINtB2_18DatumCompenseParmspE3newB4_
FNDA:0,_RNvXININtCshjdOAmE7UUc_5pyxis4miscs_0pEINtB5_18DatumCompenseParmspEINtB5_19IDatumCompenseParmspE2x0B7_
FNDA:0,_RNvXININtCshjdOAmE7UUc_5pyxis4miscs_0pEINtB5_18DatumCompenseParmspEINtB5_19IDatumCompenseParmspE2y0B7_
FNDA:0,_RNvXININtCshjdOAmE7UUc_5pyxis4miscs_0pEINtB5_18DatumCompenseParmspEINtB5_19IDatumCompenseParmspE6factorB7_
FNDA:1,_RINvNtCs5jFUyfTZGOi_5pyxis4misc14datum_compensedINtB2_18DatumCompenseParmsdEECs5Xnii73E9Kd_5pyxis
FNDA:1,_RINvNtCs5jFUyfTZGOi_5pyxis4misc7lbh2xyzdECs5Xnii73E9Kd_5pyxis
FNDA:1,_RINvNtCs5jFUyfTZGOi_5pyxis4misc7xyz2lbhdECs5Xnii73E9Kd_5pyxis
FNDA:1,_RNvMNtCs5jFUyfTZGOi_5pyxis4miscINtB2_18DatumCompenseParmsdE3newCs5Xnii73E9Kd_5pyxis
FNDA:1,_RNvXs_NtCs5jFUyfTZGOi_5pyxis4miscINtB4_18DatumCompenseParmsdEINtB4_19IDatumCompenseParmsdE2x0Cs5Xnii73E9Kd_5pyxis
FNDA:1,_RNvXs_NtCs5jFUyfTZGOi_5pyxis4miscINtB4_18DatumCompenseParmsdEINtB4_19IDatumCompenseParmsdE2y0Cs5Xnii73E9Kd_5pyxis
FNDA:2,_RNvXs_NtCs5jFUyfTZGOi_5pyxis4miscINtB4_18DatumCompenseParmsdEINtB4_19IDatumCompenseParmsdE6factorCs5Xnii73E9Kd_5pyxis
FNDA:0,_RINvNtCs5jFUyfTZGOi_5pyxis4misc14datum_compenseppEB4_
FNDA:0,_RINvNtCs5jFUyfTZGOi_5pyxis4misc7lbh2xyzpEB4_
FNDA:0,_RINvNtCs5jFUyfTZGOi_5pyxis4misc7xyz2lbhpEB4_
FNDA:0,_RNvMNtCs5jFUyfTZGOi_5pyxis4miscINtB2_18DatumCompenseParmspE3newB4_
FNDA:0,_RNvXININtCs5jFUyfTZGOi_5pyxis4miscs_0pEINtB5_18DatumCompenseParmspEINtB5_19IDatumCompenseParmspE2x0B7_
FNDA:0,_RNvXININtCs5jFUyfTZGOi_5pyxis4miscs_0pEINtB5_18DatumCompenseParmspEINtB5_19IDatumCompenseParmspE2y0B7_
FNDA:0,_RNvXININtCs5jFUyfTZGOi_5pyxis4miscs_0pEINtB5_18DatumCompenseParmspEINtB5_19IDatumCompenseParmspE6factorB7_
FNDA:1,_RNvMNtCs5jFUyfTZGOi_5pyxis4miscINtB2_18DatumCompenseParmsdE3newCs7PVR1eCJkv9_10pyxis_cuda
FNDA:1,_RNvXs_NtCs5jFUyfTZGOi_5pyxis4miscINtB4_18DatumCompenseParmsdEINtB4_19IDatumCompenseParmsdE2x0Cs7PVR1eCJkv9_10pyxis_cuda
FNDA:1,_RNvXs_NtCs5jFUyfTZGOi_5pyxis4miscINtB4_18DatumCompenseParmsdEINtB4_19IDatumCompenseParmsdE2y0Cs7PVR1eCJkv9_10pyxis_cuda
FNDA:1,_RNvXs_NtCs5jFUyfTZGOi_5pyxis4miscINtB4_18DatumCompenseParmsdEINtB4_19IDatumCompenseParmsdE6factorCs7PVR1eCJkv9_10pyxis_cuda
FNDA:0,_RINvNtCs5jFUyfTZGOi_5pyxis4misc14datum_compensedINtB2_18DatumCompenseParmsdEECs7R9DD1F5i3A_8pyxis_py
FNDA:0,_RINvNtCs5jFUyfTZGOi_5pyxis4misc7lbh2xyzdECs7R9DD1F5i3A_8pyxis_py
FNDA:0,_RINvNtCs5jFUyfTZGOi_5pyxis4misc7xyz2lbhdECs7R9DD1F5i3A_8pyxis_py
FNDA:0,_RNvMNtCs5jFUyfTZGOi_5pyxis4miscINtB2_18DatumCompenseParmsdE3newCs7R9DD1F5i3A_8pyxis_py
FNDA:0,_RNvXs_NtCs5jFUyfTZGOi_5pyxis4miscINtB4_18DatumCompenseParmsdEINtB4_19IDatumCompenseParmsdE2x0Cs7R9DD1F5i3A_8pyxis_py
FNDA:0,_RNvXs_NtCs5jFUyfTZGOi_5pyxis4miscINtB4_18DatumCompenseParmsdEINtB4_19IDatumCompenseParmsdE2y0Cs7R9DD1F5i3A_8pyxis_py
FNDA:0,_RNvXs_NtCs5jFUyfTZGOi_5pyxis4miscINtB4_18DatumCompenseParmsdEINtB4_19IDatumCompenseParmsdE6factorCs7R9DD1F5i3A_8pyxis_py
FNF:7
FNH:7
DA:13,2
DA:14,2
DA:15,2
DA:16,2
DA:17,2
DA:20,2
DA:21,2
DA:22,2
DA:23,2
DA:24,2
DA:25,2
DA:26,3
DA:27,3
DA:28,3
DA:56,1
DA:57,1
DA:58,1
DA:59,1
DA:60,1
DA:61,1
DA:62,1
DA:63,1
DA:98,1
DA:99,1
DA:100,1
DA:101,1
DA:102,1
DA:103,1
DA:104,1
DA:105,1
DA:106,1
DA:107,1
DA:108,1
DA:109,1
DA:110,1
DA:111,1
DA:112,1
DA:113,1
DA:114,1
DA:115,1
DA:157,1
DA:158,1
DA:159,1
DA:160,1
DA:161,1
DA:162,1
DA:163,1
DA:164,1
DA:165,1
DA:166,1
DA:167,1
DA:168,1
DA:169,1
DA:170,1
DA:171,1
DA:172,1
DA:173,1
DA:174,1
DA:175,1
DA:176,1
DA:177,1
DA:178,1
DA:179,1
DA:182,4
DA:183,4
DA:184,4
DA:185,4
DA:186,4
DA:187,4
DA:188,4
DA:189,4
DA:190,4
DA:191,4
DA:192,4
DA:193,0
DA:194,0
DA:196,4
DA:197,0
DA:198,4
DA:200,4
DA:201,1
DA:202,3
DA:203,3
DA:207,1
DA:208,1
DA:209,1
DA:210,1
DA:211,1
BRDA:196,0,0,0
BRDA:196,0,1,4
BRDA:196,1,2,-
BRDA:196,1,3,-
BRDA:200,0,0,1
BRDA:200,0,1,3
BRDA:200,1,2,-
BRDA:200,1,3,-
BRF:4
BRH:3
LF:88
LH:85
end_of_record
SF:D:\project\pyxis\crates\pyxis\src\space.rs
FN:52,_RINvNtCshjdOAmE7UUc_5pyxis5space22cartesian_to_sphericalpEB4_
FN:137,_RINvNtCshjdOAmE7UUc_5pyxis5space22spherical_to_cartesianpEB4_
FN:24,_RINvNtCshjdOAmE7UUc_5pyxis5space24cartesian_to_cylindricalpEB4_
FN:81,_RINvNtCshjdOAmE7UUc_5pyxis5space24cylindrical_to_cartesianpEB4_
FN:109,_RINvNtCshjdOAmE7UUc_5pyxis5space24cylindrical_to_sphericalpEB4_
FN:165,_RINvNtCshjdOAmE7UUc_5pyxis5space24spherical_to_cylindricalpEB4_
FN:52,_RINvNtCs5jFUyfTZGOi_5pyxis5space22cartesian_to_sphericaldECs5Xnii73E9Kd_5pyxis
FN:137,_RINvNtCs5jFUyfTZGOi_5pyxis5space22spherical_to_cartesiandECs5Xnii73E9Kd_5pyxis
FN:24,_RINvNtCs5jFUyfTZGOi_5pyxis5space24cartesian_to_cylindricaldECs5Xnii73E9Kd_5pyxis
FN:81,_RINvNtCs5jFUyfTZGOi_5pyxis5space24cylindrical_to_cartesiandECs5Xnii73E9Kd_5pyxis
FN:109,_RINvNtCs5jFUyfTZGOi_5pyxis5space24cylindrical_to_sphericaldECs5Xnii73E9Kd_5pyxis
FN:165,_RINvNtCs5jFUyfTZGOi_5pyxis5space24spherical_to_cylindricaldECs5Xnii73E9Kd_5pyxis
FN:52,_RINvNtCs5jFUyfTZGOi_5pyxis5space22cartesian_to_sphericalpEB4_
FN:137,_RINvNtCs5jFUyfTZGOi_5pyxis5space22spherical_to_cartesianpEB4_
FN:24,_RINvNtCs5jFUyfTZGOi_5pyxis5space24cartesian_to_cylindricalpEB4_
FN:81,_RINvNtCs5jFUyfTZGOi_5pyxis5space24cylindrical_to_cartesianpEB4_
FN:109,_RINvNtCs5jFUyfTZGOi_5pyxis5space24cylindrical_to_sphericalpEB4_
FN:165,_RINvNtCs5jFUyfTZGOi_5pyxis5space24spherical_to_cylindricalpEB4_
FN:52,_RINvNtCs5jFUyfTZGOi_5pyxis5space22cartesian_to_sphericaldECs7R9DD1F5i3A_8pyxis_py
FN:137,_RINvNtCs5jFUyfTZGOi_5pyxis5space22spherical_to_cartesiandECs7R9DD1F5i3A_8pyxis_py
FN:24,_RINvNtCs5jFUyfTZGOi_5pyxis5space24cartesian_to_cylindricaldECs7R9DD1F5i3A_8pyxis_py
FN:81,_RINvNtCs5jFUyfTZGOi_5pyxis5space24cylindrical_to_cartesiandECs7R9DD1F5i3A_8pyxis_py
FN:109,_RINvNtCs5jFUyfTZGOi_5pyxis5space24cylindrical_to_sphericaldECs7R9DD1F5i3A_8pyxis_py
FN:165,_RINvNtCs5jFUyfTZGOi_5pyxis5space24spherical_to_cylindricaldECs7R9DD1F5i3A_8pyxis_py
FNDA:0,_RINvNtCshjdOAmE7UUc_5pyxis5space22cartesian_to_sphericalpEB4_
FNDA:0,_RINvNtCshjdOAmE7UUc_5pyxis5space22spherical_to_cartesianpEB4_
FNDA:0,_RINvNtCshjdOAmE7UUc_5pyxis5space24cartesian_to_cylindricalpEB4_
FNDA:0,_RINvNtCshjdOAmE7UUc_5pyxis5space24cylindrical_to_cartesianpEB4_
FNDA:0,_RINvNtCshjdOAmE7UUc_5pyxis5space24cylindrical_to_sphericalpEB4_
FNDA:0,_RINvNtCshjdOAmE7UUc_5pyxis5space24spherical_to_cylindricalpEB4_
FNDA:1,_RINvNtCs5jFUyfTZGOi_5pyxis5space22cartesian_to_sphericaldECs5Xnii73E9Kd_5pyxis
FNDA:1,_RINvNtCs5jFUyfTZGOi_5pyxis5space22spherical_to_cartesiandECs5Xnii73E9Kd_5pyxis
FNDA:1,_RINvNtCs5jFUyfTZGOi_5pyxis5space24cartesian_to_cylindricaldECs5Xnii73E9Kd_5pyxis
FNDA:1,_RINvNtCs5jFUyfTZGOi_5pyxis5space24cylindrical_to_cartesiandECs5Xnii73E9Kd_5pyxis
FNDA:1,_RINvNtCs5jFUyfTZGOi_5pyxis5space24cylindrical_to_sphericaldECs5Xnii73E9Kd_5pyxis
FNDA:1,_RINvNtCs5jFUyfTZGOi_5pyxis5space24spherical_to_cylindricaldECs5Xnii73E9Kd_5pyxis
FNDA:0,_RINvNtCs5jFUyfTZGOi_5pyxis5space22cartesian_to_sphericalpEB4_
FNDA:0,_RINvNtCs5jFUyfTZGOi_5pyxis5space22spherical_to_cartesianpEB4_
FNDA:0,_RINvNtCs5jFUyfTZGOi_5pyxis5space24cartesian_to_cylindricalpEB4_
FNDA:0,_RINvNtCs5jFUyfTZGOi_5pyxis5space24cylindrical_to_cartesianpEB4_
FNDA:0,_RINvNtCs5jFUyfTZGOi_5pyxis5space24cylindrical_to_sphericalpEB4_
FNDA:0,_RINvNtCs5jFUyfTZGOi_5pyxis5space24spherical_to_cylindricalpEB4_
FNDA:0,_RINvNtCs5jFUyfTZGOi_5pyxis5space22cartesian_to_sphericaldECs7R9DD1F5i3A_8pyxis_py
FNDA:0,_RINvNtCs5jFUyfTZGOi_5pyxis5space22spherical_to_cartesiandECs7R9DD1F5i3A_8pyxis_py
FNDA:0,_RINvNtCs5jFUyfTZGOi_5pyxis5space24cartesian_to_cylindricaldECs7R9DD1F5i3A_8pyxis_py
FNDA:0,_RINvNtCs5jFUyfTZGOi_5pyxis5space24cylindrical_to_cartesiandECs7R9DD1F5i3A_8pyxis_py
FNDA:0,_RINvNtCs5jFUyfTZGOi_5pyxis5space24cylindrical_to_sphericaldECs7R9DD1F5i3A_8pyxis_py
FNDA:0,_RINvNtCs5jFUyfTZGOi_5pyxis5space24spherical_to_cylindricaldECs7R9DD1F5i3A_8pyxis_py
FNF:6
FNH:6
DA:24,1
DA:25,1
DA:26,1
DA:27,1
DA:28,1
DA:29,1
DA:52,1
DA:53,1
DA:54,1
DA:55,1
DA:56,1
DA:57,1
DA:58,1
DA:81,1
DA:82,1
DA:83,1
DA:84,1
DA:85,1
DA:86,1
DA:109,1
DA:110,1
DA:111,1
DA:112,1
DA:113,1
DA:114,1
DA:137,1
DA:138,1
DA:139,1
DA:140,1
DA:141,1
DA:142,1
DA:165,1
DA:166,1
DA:167,1
DA:168,1
DA:169,1
DA:170,1
BRF:0
BRH:0
LF:37
LH:37
end_of_record
SF:D:\project\pyxis\crates\pyxis\src\types.rs
FN:80,_RNvXs1_NtCshjdOAmE7UUc_5pyxis5typesdINtB5_14ConstEllipsoiddE13krasovsky1940
FN:83,_RNvXs1_NtCshjdOAmE7UUc_5pyxis5typesdINtB5_14ConstEllipsoiddE5wgs84
FN:37,_RNCNvNtCshjdOAmE7UUc_5pyxis5types11GRS1980_F320B5_
FN:63,_RNCNvNtCshjdOAmE7UUc_5pyxis5types11GRS1980_F640B5_
FN:39,_RNCNvNtCshjdOAmE7UUc_5pyxis5types11IAG1975_F320B5_
FN:65,_RNCNvNtCshjdOAmE7UUc_5pyxis5types11IAG1975_F640B5_
FN:41,_RNCNvNtCshjdOAmE7UUc_5pyxis5types17KRASOVSKY1940_F320B5_
FN:67,_RNCNvNtCshjdOAmE7UUc_5pyxis5types17KRASOVSKY1940_F640B5_
FN:43,_RNCNvNtCshjdOAmE7UUc_5pyxis5types9WGS84_F320B5_
FN:69,_RNCNvNtCshjdOAmE7UUc_5pyxis5types9WGS84_F640B5_
FN:54,_RNvXs0_NtCshjdOAmE7UUc_5pyxis5typesfINtB5_14ConstEllipsoidfE13krasovsky1940
FN:57,_RNvXs0_NtCshjdOAmE7UUc_5pyxis5typesfINtB5_14ConstEllipsoidfE5wgs84
FN:51,_RNvXs0_NtCshjdOAmE7UUc_5pyxis5typesfINtB5_14ConstEllipsoidfE7grs1980
FN:48,_RNvXs0_NtCshjdOAmE7UUc_5pyxis5typesfINtB5_14ConstEllipsoidfE7iag1975
FN:45,_RNvXs0_NtCshjdOAmE7UUc_5pyxis5typesfINtB5_14ConstEllipsoidfE8cgcs2000
FN:77,_RNvXs1_NtCshjdOAmE7UUc_5pyxis5typesdINtB5_14ConstEllipsoiddE7grs1980
FN:74,_RNvXs1_NtCshjdOAmE7UUc_5pyxis5typesdINtB5_14ConstEllipsoiddE7iag1975
FN:71,_RNvXs1_NtCshjdOAmE7UUc_5pyxis5typesdINtB5_14ConstEllipsoiddE8cgcs2000
FN:54,_RNvXs0_NtCs5jFUyfTZGOi_5pyxis5typesfINtB5_14ConstEllipsoidfE13krasovsky1940
FN:57,_RNvXs0_NtCs5jFUyfTZGOi_5pyxis5typesfINtB5_14ConstEllipsoidfE5wgs84
FN:51,_RNvXs0_NtCs5jFUyfTZGOi_5pyxis5typesfINtB5_14ConstEllipsoidfE7grs1980
FN:48,_RNvXs0_NtCs5jFUyfTZGOi_5pyxis5typesfINtB5_14ConstEllipsoidfE7iag1975
FN:45,_RNvXs0_NtCs5jFUyfTZGOi_5pyxis5typesfINtB5_14ConstEllipsoidfE8cgcs2000
FN:80,_RNvXs1_NtCs5jFUyfTZGOi_5pyxis5typesdINtB5_14ConstEllipsoiddE13krasovsky1940
FN:83,_RNvXs1_NtCs5jFUyfTZGOi_5pyxis5typesdINtB5_14ConstEllipsoiddE5wgs84
FN:77,_RNvXs1_NtCs5jFUyfTZGOi_5pyxis5typesdINtB5_14ConstEllipsoiddE7grs1980
FN:74,_RNvXs1_NtCs5jFUyfTZGOi_5pyxis5typesdINtB5_14ConstEllipsoiddE7iag1975
FN:71,_RNvXs1_NtCs5jFUyfTZGOi_5pyxis5typesdINtB5_14ConstEllipsoiddE8cgcs2000
FN:37,_RNCNvNtCs5jFUyfTZGOi_5pyxis5types11GRS1980_F320B5_
FN:63,_RNCNvNtCs5jFUyfTZGOi_5pyxis5types11GRS1980_F640B5_
FN:39,_RNCNvNtCs5jFUyfTZGOi_5pyxis5types11IAG1975_F320B5_
FN:65,_RNCNvNtCs5jFUyfTZGOi_5pyxis5types11IAG1975_F640B5_
FN:41,_RNCNvNtCs5jFUyfTZGOi_5pyxis5types17KRASOVSKY1940_F320B5_
FN:67,_RNCNvNtCs5jFUyfTZGOi_5pyxis5types17KRASOVSKY1940_F640B5_
FN:43,_RNCNvNtCs5jFUyfTZGOi_5pyxis5types9WGS84_F320B5_
FN:69,_RNCNvNtCs5jFUyfTZGOi_5pyxis5types9WGS84_F640B5_
FNDA:6240424,_RNvXs1_NtCshjdOAmE7UUc_5pyxis5typesdINtB5_14ConstEllipsoiddE13krasovsky1940
FNDA:60000,_RNvXs1_NtCshjdOAmE7UUc_5pyxis5typesdINtB5_14ConstEllipsoiddE5wgs84
FNDA:0,_RNCNvNtCshjdOAmE7UUc_5pyxis5types11GRS1980_F320B5_
FNDA:0,_RNCNvNtCshjdOAmE7UUc_5pyxis5types11GRS1980_F640B5_
FNDA:0,_RNCNvNtCshjdOAmE7UUc_5pyxis5types11IAG1975_F320B5_
FNDA:0,_RNCNvNtCshjdOAmE7UUc_5pyxis5types11IAG1975_F640B5_
FNDA:0,_RNCNvNtCshjdOAmE7UUc_5pyxis5types17KRASOVSKY1940_F320B5_
FNDA:1,_RNCNvNtCshjdOAmE7UUc_5pyxis5types17KRASOVSKY1940_F640B5_
FNDA:0,_RNCNvNtCshjdOAmE7UUc_5pyxis5types9WGS84_F320B5_
FNDA:1,_RNCNvNtCshjdOAmE7UUc_5pyxis5types9WGS84_F640B5_
FNDA:0,_RNvXs0_NtCshjdOAmE7UUc_5pyxis5typesfINtB5_14ConstEllipsoidfE13krasovsky1940
FNDA:0,_RNvXs0_NtCshjdOAmE7UUc_5pyxis5typesfINtB5_14ConstEllipsoidfE5wgs84
FNDA:0,_RNvXs0_NtCshjdOAmE7UUc_5pyxis5typesfINtB5_14ConstEllipsoidfE7grs1980
FNDA:0,_RNvXs0_NtCshjdOAmE7UUc_5pyxis5typesfINtB5_14ConstEllipsoidfE7iag1975
FNDA:0,_RNvXs0_NtCshjdOAmE7UUc_5pyxis5typesfINtB5_14ConstEllipsoidfE8cgcs2000
FNDA:0,_RNvXs1_NtCshjdOAmE7UUc_5pyxis5typesdINtB5_14ConstEllipsoiddE7grs1980
FNDA:0,_RNvXs1_NtCshjdOAmE7UUc_5pyxis5typesdINtB5_14ConstEllipsoiddE7iag1975
FNDA:0,_RNvXs1_NtCshjdOAmE7UUc_5pyxis5typesdINtB5_14ConstEllipsoiddE8cgcs2000
FNDA:0,_RNvXs0_NtCs5jFUyfTZGOi_5pyxis5typesfINtB5_14ConstEllipsoidfE13krasovsky1940
FNDA:0,_RNvXs0_NtCs5jFUyfTZGOi_5pyxis5typesfINtB5_14ConstEllipsoidfE5wgs84
FNDA:0,_RNvXs0_NtCs5jFUyfTZGOi_5pyxis5typesfINtB5_14ConstEllipsoidfE7grs1980
FNDA:0,_RNvXs0_NtCs5jFUyfTZGOi_5pyxis5typesfINtB5_14ConstEllipsoidfE7iag1975
FNDA:0,_RNvXs0_NtCs5jFUyfTZGOi_5pyxis5typesfINtB5_14ConstEllipsoidfE8cgcs2000
FNDA:484,_RNvXs1_NtCs5jFUyfTZGOi_5pyxis5typesdINtB5_14ConstEllipsoiddE13krasovsky1940
FNDA:159,_RNvXs1_NtCs5jFUyfTZGOi_5pyxis5typesdINtB5_14ConstEllipsoiddE5wgs84
FNDA:0,_RNvXs1_NtCs5jFUyfTZGOi_5pyxis5typesdINtB5_14ConstEllipsoiddE7grs1980
FNDA:0,_RNvXs1_NtCs5jFUyfTZGOi_5pyxis5typesdINtB5_14ConstEllipsoiddE7iag1975
FNDA:0,_RNvXs1_NtCs5jFUyfTZGOi_5pyxis5typesdINtB5_14ConstEllipsoiddE8cgcs2000
FNDA:0,_RNCNvNtCs5jFUyfTZGOi_5pyxis5types11GRS1980_F320B5_
FNDA:0,_RNCNvNtCs5jFUyfTZGOi_5pyxis5types11GRS1980_F640B5_
FNDA:0,_RNCNvNtCs5jFUyfTZGOi_5pyxis5types11IAG1975_F320B5_
FNDA:0,_RNCNvNtCs5jFUyfTZGOi_5pyxis5types11IAG1975_F640B5_
FNDA:0,_RNCNvNtCs5jFUyfTZGOi_5pyxis5types17KRASOVSKY1940_F320B5_
FNDA:10,_RNCNvNtCs5jFUyfTZGOi_5pyxis5types17KRASOVSKY1940_F640B5_
FNDA:0,_RNCNvNtCs5jFUyfTZGOi_5pyxis5types9WGS84_F320B5_
FNDA:2,_RNCNvNtCs5jFUyfTZGOi_5pyxis5types9WGS84_F640B5_
FNF:18
FNH:4
DA:37,0
DA:39,0
DA:41,0
DA:43,0
DA:45,0
DA:46,0
DA:47,0
DA:48,0
DA:49,0
DA:50,0
DA:51,0
DA:52,0
DA:53,0
DA:54,0
DA:55,0
DA:56,0
DA:57,0
DA:58,0
DA:59,0
DA:63,0
DA:65,0
DA:67,11
DA:69,3
DA:71,0
DA:72,0
DA:73,0
DA:74,0
DA:75,0
DA:76,0
DA:77,0
DA:78,0
DA:79,0
DA:80,6240908
DA:81,6240908
DA:82,6240908
DA:83,60159
DA:84,60159
DA:85,60159
BRF:0
BRH:0
LF:38
LH:8
end_of_record