SF:D:\project\pyxis\rust-cuda\src\context.rs
FN:128,_RNvMs0_NtCs7TwC2c9SHrR_10pyxis_cuda7contextNtB5_16PyxisCudaContext14set_block_size
FN:47,_RNvMs_NtCs7TwC2c9SHrR_10pyxis_cuda7contextNtB4_16PyxisCudaContext14set_size_limit
FN:53,_RNvMs_NtCs7TwC2c9SHrR_10pyxis_cuda7contextNtB4_16PyxisCudaContext15set_count_limit
FN:29,_RNvMNtCs7TwC2c9SHrR_10pyxis_cuda7contextNtB2_16PyxisCudaContext3new
FN:138,_RNvMs0_NtCs7TwC2c9SHrR_10pyxis_cuda7contextNtB5_16PyxisCudaContext14get_grid_block
FN:166,_RNvMs1_NtCs7TwC2c9SHrR_10pyxis_cuda7contextNtB5_16PyxisCudaContext24device_buffer_from_slice
FN:77,_RNvMs_NtCs7TwC2c9SHrR_10pyxis_cuda7contextNtB4_16PyxisCudaContext10add_module
FN:59,_RNvMs_NtCs7TwC2c9SHrR_10pyxis_cuda7contextNtB4_16PyxisCudaContext10get_module
FN:115,_RNvMs_NtCs7TwC2c9SHrR_10pyxis_cuda7contextNtB4_16PyxisCudaContext18remove_last_module
FN:153,_RINvMs1_NtCs7TwC2c9SHrR_10pyxis_cuda7contextNtB6_16PyxisCudaContext12get_functiondEB8_
FN:128,_RNvMs0_NtCsiMB2r01GLXC_10pyxis_cuda7contextNtB5_16PyxisCudaContext14set_block_size
FN:47,_RNvMs_NtCsiMB2r01GLXC_10pyxis_cuda7contextNtB4_16PyxisCudaContext14set_size_limit
FN:53,_RNvMs_NtCsiMB2r01GLXC_10pyxis_cuda7contextNtB4_16PyxisCudaContext15set_count_limit
FN:153,_RINvMs1_NtCsiMB2r01GLXC_10pyxis_cuda7contextNtB6_16PyxisCudaContext12get_functiondEB8_
FN:29,_RNvMNtCsiMB2r01GLXC_10pyxis_cuda7contextNtB2_16PyxisCudaContext3new
FN:138,_RNvMs0_NtCsiMB2r01GLXC_10pyxis_cuda7contextNtB5_16PyxisCudaContext14get_grid_block
FN:166,_RNvMs1_NtCsiMB2r01GLXC_10pyxis_cuda7contextNtB5_16PyxisCudaContext24device_buffer_from_slice
FN:77,_RNvMs_NtCsiMB2r01GLXC_10pyxis_cuda7contextNtB4_16PyxisCudaContext10add_module
FN:59,_RNvMs_NtCsiMB2r01GLXC_10pyxis_cuda7contextNtB4_16PyxisCudaContext10get_module
FN:115,_RNvMs_NtCsiMB2r01GLXC_10pyxis_cuda7contextNtB4_16PyxisCudaContext18remove_last_module
FN:29,_RNvMNtCslQO64xcTy24_10pyxis_cuda7contextNtB2_16PyxisCudaContext3new
FN:138,_RNvMs0_NtCslQO64xcTy24_10pyxis_cuda7contextNtB5_16PyxisCudaContext14get_grid_block
FN:166,_RNvMs1_NtCslQO64xcTy24_10pyxis_cuda7contextNtB5_16PyxisCudaContext24device_buffer_from_slice
FN:77,_RNvMs_NtCslQO64xcTy24_10pyxis_cuda7contextNtB4_16PyxisCudaContext10add_module
FN:59,_RNvMs_NtCslQO64xcTy24_10pyxis_cuda7contextNtB4_16PyxisCudaContext10get_module
FN:115,_RNvMs_NtCslQO64xcTy24_10pyxis_cuda7contextNtB4_16PyxisCudaContext18remove_last_module
FN:128,_RNvMs0_NtCslQO64xcTy24_10pyxis_cuda7contextNtB5_16PyxisCudaContext14set_block_size
FN:47,_RNvMs_NtCslQO64xcTy24_10pyxis_cuda7contextNtB4_16PyxisCudaContext14set_size_limit
FN:53,_RNvMs_NtCslQO64xcTy24_10pyxis_cuda7contextNtB4_16PyxisCudaContext15set_count_limit
FN:153,_RINvMs1_NtCslQO64xcTy24_10pyxis_cuda7contextNtB6_16PyxisCudaContext12get_functiondEB8_
FNDA:0,_RNvMs0_NtCs7TwC2c9SHrR_10pyxis_cuda7contextNtB5_16PyxisCudaContext14set_block_size
FNDA:0,_RNvMs_NtCs7TwC2c9SHrR_10pyxis_cuda7contextNtB4_16PyxisCudaContext14set_size_limit
FNDA:0,_RNvMs_NtCs7TwC2c9SHrR_10pyxis_cuda7contextNtB4_16PyxisCudaContext15set_count_limit
FNDA:33,_RNvMNtCs7TwC2c9SHrR_10pyxis_cuda7contextNtB2_16PyxisCudaContext3new
FNDA:39,_RNvMs0_NtCs7TwC2c9SHrR_10pyxis_cuda7contextNtB5_16PyxisCudaContext14get_grid_block
FNDA:78,_RNvMs1_NtCs7TwC2c9SHrR_10pyxis_cuda7contextNtB5_16PyxisCudaContext24device_buffer_from_slice
FNDA:33,_RNvMs_NtCs7TwC2c9SHrR_10pyxis_cuda7contextNtB4_16PyxisCudaContext10add_module
FNDA:39,_RNvMs_NtCs7TwC2c9SHrR_10pyxis_cuda7contextNtB4_16PyxisCudaContext10get_module
FNDA:0,_RNvMs_NtCs7TwC2c9SHrR_10pyxis_cuda7contextNtB4_16PyxisCudaContext18remove_last_module
FNDA:39,_RINvMs1_NtCs7TwC2c9SHrR_10pyxis_cuda7contextNtB6_16PyxisCudaContext12get_functiondEB8_
FNDA:0,_RNvMs0_NtCsiMB2r01GLXC_10pyxis_cuda7contextNtB5_16PyxisCudaContext14set_block_size
FNDA:0,_RNvMs_NtCsiMB2r01GLXC_10pyxis_cuda7contextNtB4_16PyxisCudaContext14set_size_limit
FNDA:0,_RNvMs_NtCsiMB2r01GLXC_10pyxis_cuda7contextNtB4_16PyxisCudaContext15set_count_limit
FNDA:13,_RINvMs1_NtCsiMB2r01GLXC_10pyxis_cuda7contextNtB6_16PyxisCudaContext12get_functiondEB8_
FNDA:11,_RNvMNtCsiMB2r01GLXC_10pyxis_cuda7contextNtB2_16PyxisCudaContext3new
FNDA:13,_RNvMs0_NtCsiMB2r01GLXC_10pyxis_cuda7contextNtB5_16PyxisCudaContext14get_grid_block
FNDA:26,_RNvMs1_NtCsiMB2r01GLXC_10pyxis_cuda7contextNtB5_16PyxisCudaContext24device_buffer_from_slice
FNDA:11,_RNvMs_NtCsiMB2r01GLXC_10pyxis_cuda7contextNtB4_16PyxisCudaContext10add_module
FNDA:13,_RNvMs_NtCsiMB2r01GLXC_10pyxis_cuda7contextNtB4_16PyxisCudaContext10get_module
FNDA:0,_RNvMs_NtCsiMB2r01GLXC_10pyxis_cuda7contextNtB4_16PyxisCudaContext18remove_last_module
FNDA:44,_RNvMNtCslQO64xcTy24_10pyxis_cuda7contextNtB2_16PyxisCudaContext3new
FNDA:52,_RNvMs0_NtCslQO64xcTy24_10pyxis_cuda7contextNtB5_16PyxisCudaContext14get_grid_block
FNDA:104,_RNvMs1_NtCslQO64xcTy24_10pyxis_cuda7contextNtB5_16PyxisCudaContext24device_buffer_from_slice
FNDA:44,_RNvMs_NtCslQO64xcTy24_10pyxis_cuda7contextNtB4_16PyxisCudaContext10add_module
FNDA:52,_RNvMs_NtCslQO64xcTy24_10pyxis_cuda7contextNtB4_16PyxisCudaContext10get_module
FNDA:0,_RNvMs_NtCslQO64xcTy24_10pyxis_cuda7contextNtB4_16PyxisCudaContext18remove_last_module
FNDA:0,_RNvMs0_NtCslQO64xcTy24_10pyxis_cuda7contextNtB5_16PyxisCudaContext14set_block_size
FNDA:0,_RNvMs_NtCslQO64xcTy24_10pyxis_cuda7contextNtB4_16PyxisCudaContext14set_size_limit
FNDA:0,_RNvMs_NtCslQO64xcTy24_10pyxis_cuda7contextNtB4_16PyxisCudaContext15set_count_limit
FNDA:52,_RINvMs1_NtCslQO64xcTy24_10pyxis_cuda7contextNtB6_16PyxisCudaContext12get_functiondEB8_
FNF:10
FNH:6
DA:29,88
DA:30,88
DA:31,88
DA:32,88
DA:33,88
DA:34,88
DA:35,88
DA:36,88
DA:37,88
DA:38,88
DA:39,88
DA:40,88
DA:41,88
DA:42,88
DA:47,0
DA:48,0
DA:49,0
DA:50,0
DA:51,0
DA:53,0
DA:54,0
DA:55,0
DA:56,0
DA:57,0
DA:59,104
DA:61,104
DA:62,104
DA:63,88
DA:64,88
DA:65,88
DA:68,104
DA:69,104
DA:70,104
DA:71,104
DA:72,104
DA:73,104
DA:74,104
DA:75,104
DA:76,104
DA:77,88
DA:79,88
DA:87,88
DA:88,0
DA:89,0
DA:90,0
DA:91,0
DA:92,88
DA:94,88
DA:95,88
DA:96,0
DA:97,0
DA:98,0
DA:99,0
DA:100,0
DA:101,0
DA:102,0
DA:103,0
DA:105,88
DA:106,88
DA:107,88
DA:108,88
DA:109,88
DA:110,88
DA:111,88
DA:112,88
DA:113,88
DA:114,88
DA:115,0
DA:116,0
DA:117,0
DA:118,0
DA:119,0
DA:120,0
DA:121,0
DA:122,0
DA:123,0
DA:128,0
DA:129,0
DA:130,0
DA:131,0
DA:132,0
DA:138,104
DA:139,104
DA:140,104
DA:141,104
DA:142,104
DA:148,104
DA:149,104
DA:153,104
DA:154,104
DA:155,104
DA:156,104
DA:157,104
DA:160,104
DA:161,104
DA:162,104
DA:163,0
DA:165,104
DA:166,208
DA:167,208
DA:168,208
BRDA:62,0,0,33
BRDA:62,0,1,6
BRDA:62,1,2,11
BRDA:62,1,3,2
BRDA:62,2,4,44
BRDA:62,2,5,8
BRDA:87,0,0,0
BRDA:87,0,1,33
BRDA:87,1,2,0
BRDA:87,1,3,11
BRDA:87,2,4,0
BRDA:87,2,5,44
BRDA:88,0,0,-
BRDA:88,0,1,-
BRDA:88,1,2,-
BRDA:88,1,3,-
BRDA:88,2,4,-
BRDA:88,2,5,-
BRDA:94,0,0,33
BRDA:94,0,1,0
BRDA:94,1,2,11
BRDA:94,1,3,0
BRDA:94,2,4,44
BRDA:94,2,5,0
BRDA:95,0,0,0
BRDA:95,0,1,33
BRDA:95,1,2,0
BRDA:95,1,3,11
BRDA:95,2,4,0
BRDA:95,2,5,44
BRDA:116,0,0,-
BRDA:116,0,1,-
BRDA:116,1,2,-
BRDA:116,1,3,-
BRDA:116,2,4,-
BRDA:116,2,5,-
BRDA:117,0,0,-
BRDA:117,0,1,-
BRDA:117,1,2,-
BRDA:117,1,3,-
BRDA:117,2,4,-
BRDA:117,2,5,-
BRDA:161,0,0,0
BRDA:161,0,1,39
BRDA:161,1,2,0
BRDA:161,1,3,13
BRDA:161,2,4,0
BRDA:161,2,5,52
BRDA:162,0,0,39
BRDA:162,0,1,0
BRDA:162,1,2,13
BRDA:162,1,3,0
BRDA:162,2,4,52
BRDA:162,2,5,0
BRF:18
BRH:7
LF:101
LH:64
end_of_record
SF:D:\project\pyxis\rust-cuda\src\crypto_cuda.rs
FN:403,_RNvNtNtCs7TwC2c9SHrR_10pyxis_cuda11crypto_cuda4tests_15test_exact_cuda
FN:221,_RNvNtNtCs7TwC2c9SHrR_10pyxis_cuda11crypto_cuda4tests_23test_bd09_to_gcj02_cuda
FN:307,_RNvNtNtCs7TwC2c9SHrR_10pyxis_cuda11crypto_cuda4tests_23test_bd09_to_wgs84_cuda
FN:239,_RNvNtNtCs7TwC2c9SHrR_10pyxis_cuda11crypto_cuda4tests_23test_gcj02_to_bd09_cuda
FN:291,_RNvNtNtCs7TwC2c9SHrR_10pyxis_cuda11crypto_cuda4tests_23test_wgs84_to_bd09_cuda
FN:256,_RNvNtNtCs7TwC2c9SHrR_10pyxis_cuda11crypto_cuda4tests_24test_gcj02_to_wgs84_cuda
FN:274,_RNvNtNtCs7TwC2c9SHrR_10pyxis_cuda11crypto_cuda4tests_24test_wgs84_to_gcj02_cuda
FN:351,_RNvNtNtCs7TwC2c9SHrR_10pyxis_cuda11crypto_cuda4tests_29test_bd09_to_gcj02_exact_cuda
FN:325,_RNvNtNtCs7TwC2c9SHrR_10pyxis_cuda11crypto_cuda4tests_29test_bd09_to_wgs84_exact_cuda
FN:377,_RNvNtNtCs7TwC2c9SHrR_10pyxis_cuda11crypto_cuda4tests_30test_gcj02_to_wgs84_exact_cuda
FN:164,_RINvMNtCs7TwC2c9SHrR_10pyxis_cuda11crypto_cudaNtNtB5_7context16PyxisCudaContext17crypto_exact_cudadEB5_
FN:15,_RINvMNtCs7TwC2c9SHrR_10pyxis_cuda11crypto_cudaNtNtB5_7context16PyxisCudaContext18bd09_to_gcj02_cudadEB5_
FN:139,_RINvMNtCs7TwC2c9SHrR_10pyxis_cuda11crypto_cudaNtNtB5_7context16PyxisCudaContext18bd09_to_wgs84_cudadEB5_
FN:39,_RINvMNtCs7TwC2c9SHrR_10pyxis_cuda11crypto_cudaNtNtB5_7context16PyxisCudaContext18gcj02_to_bd09_cudadEB5_
FN:114,_RINvMNtCs7TwC2c9SHrR_10pyxis_cuda11crypto_cudaNtNtB5_7context16PyxisCudaContext18wgs84_to_bd09_cudadEB5_
FN:64,_RINvMNtCs7TwC2c9SHrR_10pyxis_cuda11crypto_cudaNtNtB5_7context16PyxisCudaContext19gcj02_to_wgs84_cudadEB5_
FN:89,_RINvMNtCs7TwC2c9SHrR_10pyxis_cuda11crypto_cudaNtNtB5_7context16PyxisCudaContext19wgs84_to_gcj02_cudadEB5_
FN:408,_RNCNvNtNtCs7TwC2c9SHrR_10pyxis_cuda11crypto_cuda4tests_15test_exact_cuda0B7_
FN:416,_RNCNvNtNtCs7TwC2c9SHrR_10pyxis_cuda11crypto_cuda4tests_15test_exact_cudas0_0B7_
FN:421,_RNCNvNtNtCs7TwC2c9SHrR_10pyxis_cuda11crypto_cuda4tests_15test_exact_cudas1_0B7_
FN:426,_RNCNvNtNtCs7TwC2c9SHrR_10pyxis_cuda11crypto_cuda4tests_15test_exact_cudas2_0B7_
FN:431,_RNCNvNtNtCs7TwC2c9SHrR_10pyxis_cuda11crypto_cuda4tests_15test_exact_cudas3_0B7_
FN:458,_RNCNvNtNtCs7TwC2c9SHrR_10pyxis_cuda11crypto_cuda4tests_15test_exact_cudas4_0B7_
FN:495,_RNCNvNtNtCs7TwC2c9SHrR_10pyxis_cuda11crypto_cuda4tests_15test_exact_cudas5_0B7_
FN:532,_RNCNvNtNtCs7TwC2c9SHrR_10pyxis_cuda11crypto_cuda4tests_15test_exact_cudas6_0B7_
FN:411,_RNCNvNtNtCs7TwC2c9SHrR_10pyxis_cuda11crypto_cuda4tests_15test_exact_cudas_0B7_
FN:164,_RINvMNtCsiMB2r01GLXC_10pyxis_cuda11crypto_cudaNtNtB5_7context16PyxisCudaContext17crypto_exact_cudadEB5_
FN:15,_RINvMNtCsiMB2r01GLXC_10pyxis_cuda11crypto_cudaNtNtB5_7context16PyxisCudaContext18bd09_to_gcj02_cudadEB5_
FN:139,_RINvMNtCsiMB2r01GLXC_10pyxis_cuda11crypto_cudaNtNtB5_7context16PyxisCudaContext18bd09_to_wgs84_cudadEB5_
FN:39,_RINvMNtCsiMB2r01GLXC_10pyxis_cuda11crypto_cudaNtNtB5_7context16PyxisCudaContext18gcj02_to_bd09_cudadEB5_
FN:114,_RINvMNtCsiMB2r01GLXC_10pyxis_cuda11crypto_cudaNtNtB5_7context16PyxisCudaContext18wgs84_to_bd09_cudadEB5_
FN:64,_RINvMNtCsiMB2r01GLXC_10pyxis_cuda11crypto_cudaNtNtB5_7context16PyxisCudaContext19gcj02_to_wgs84_cudadEB5_
FN:89,_RINvMNtCsiMB2r01GLXC_10pyxis_cuda11crypto_cudaNtNtB5_7context16PyxisCudaContext19wgs84_to_gcj02_cudadEB5_
FN:403,_RNvNtNtCsiMB2r01GLXC_10pyxis_cuda11crypto_cuda4tests_15test_exact_cuda
FN:221,_RNvNtNtCsiMB2r01GLXC_10pyxis_cuda11crypto_cuda4tests_23test_bd09_to_gcj02_cuda
FN:307,_RNvNtNtCsiMB2r01GLXC_10pyxis_cuda11crypto_cuda4tests_23test_bd09_to_wgs84_cuda
FN:239,_RNvNtNtCsiMB2r01GLXC_10pyxis_cuda11crypto_cuda4tests_23test_gcj02_to_bd09_cuda
FN:291,_RNvNtNtCsiMB2r01GLXC_10pyxis_cuda11crypto_cuda4tests_23test_wgs84_to_bd09_cuda
FN:256,_RNvNtNtCsiMB2r01GLXC_10pyxis_cuda11crypto_cuda4tests_24test_gcj02_to_wgs84_cuda
FN:274,_RNvNtNtCsiMB2r01GLXC_10pyxis_cuda11crypto_cuda4tests_24test_wgs84_to_gcj02_cuda
FN:351,_RNvNtNtCsiMB2r01GLXC_10pyxis_cuda11crypto_cuda4tests_29test_bd09_to_gcj02_exact_cuda
FN:325,_RNvNtNtCsiMB2r01GLXC_10pyxis_cuda11crypto_cuda4tests_29test_bd09_to_wgs84_exact_cuda
FN:377,_RNvNtNtCsiMB2r01GLXC_10pyxis_cuda11crypto_cuda4tests_30test_gcj02_to_wgs84_exact_cuda
FN:408,_RNCNvNtNtCsiMB2r01GLXC_10pyxis_cuda11crypto_cuda4tests_15test_exact_cuda0B7_
FN:416,_RNCNvNtNtCsiMB2r01GLXC_10pyxis_cuda11crypto_cuda4tests_15test_exact_cudas0_0B7_
FN:421,_RNCNvNtNtCsiMB2r01GLXC_10pyxis_cuda11crypto_cuda4tests_15test_exact_cudas1_0B7_
FN:426,_RNCNvNtNtCsiMB2r01GLXC_10pyxis_cuda11crypto_cuda4tests_15test_exact_cudas2_0B7_
FN:431,_RNCNvNtNtCsiMB2r01GLXC_10pyxis_cuda11crypto_cuda4tests_15test_exact_cudas3_0B7_
FN:458,_RNCNvNtNtCsiMB2r01GLXC_10pyxis_cuda11crypto_cuda4tests_15test_exact_cudas4_0B7_
FN:495,_RNCNvNtNtCsiMB2r01GLXC_10pyxis_cuda11crypto_cuda4tests_15test_exact_cudas5_0B7_
FN:532,_RNCNvNtNtCsiMB2r01GLXC_10pyxis_cuda11crypto_cuda4tests_15test_exact_cudas6_0B7_
FN:411,_RNCNvNtNtCsiMB2r01GLXC_10pyxis_cuda11crypto_cuda4tests_15test_exact_cudas_0B7_
FN:408,_RNCNvNtNtCslQO64xcTy24_10pyxis_cuda11crypto_cuda4tests_15test_exact_cuda0B7_
FN:416,_RNCNvNtNtCslQO64xcTy24_10pyxis_cuda11crypto_cuda4tests_15test_exact_cudas0_0B7_
FN:421,_RNCNvNtNtCslQO64xcTy24_10pyxis_cuda11crypto_cuda4tests_15test_exact_cudas1_0B7_
FN:426,_RNCNvNtNtCslQO64xcTy24_10pyxis_cuda11crypto_cuda4tests_15test_exact_cudas2_0B7_
FN:431,_RNCNvNtNtCslQO64xcTy24_10pyxis_cuda11crypto_cuda4tests_15test_exact_cudas3_0B7_
FN:458,_RNCNvNtNtCslQO64xcTy24_10pyxis_cuda11crypto_cuda4tests_15test_exact_cudas4_0B7_
FN:495,_RNCNvNtNtCslQO64xcTy24_10pyxis_cuda11crypto_cuda4tests_15test_exact_cudas5_0B7_
FN:532,_RNCNvNtNtCslQO64xcTy24_10pyxis_cuda11crypto_cuda4tests_15test_exact_cudas6_0B7_
FN:411,_RNCNvNtNtCslQO64xcTy24_10pyxis_cuda11crypto_cuda4tests_15test_exact_cudas_0B7_
FN:403,_RNvNtNtCslQO64xcTy24_10pyxis_cuda11crypto_cuda4tests_15test_exact_cuda
FN:221,_RNvNtNtCslQO64xcTy24_10pyxis_cuda11crypto_cuda4tests_23test_bd09_to_gcj02_cuda
FN:307,_RNvNtNtCslQO64xcTy24_10pyxis_cuda11crypto_cuda4tests_23test_bd09_to_wgs84_cuda
FN:239,_RNvNtNtCslQO64xcTy24_10pyxis_cuda11crypto_cuda4tests_23test_gcj02_to_bd09_cuda
FN:291,_RNvNtNtCslQO64xcTy24_10pyxis_cuda11crypto_cuda4tests_23test_wgs84_to_bd09_cuda
FN:256,_RNvNtNtCslQO64xcTy24_10pyxis_cuda11crypto_cuda4tests_24test_gcj02_to_wgs84_cuda
FN:274,_RNvNtNtCslQO64xcTy24_10pyxis_cuda11crypto_cuda4tests_24test_wgs84_to_gcj02_cuda
FN:351,_RNvNtNtCslQO64xcTy24_10pyxis_cuda11crypto_cuda4tests_29test_bd09_to_gcj02_exact_cuda
FN:325,_RNvNtNtCslQO64xcTy24_10pyxis_cuda11crypto_cuda4tests_29test_bd09_to_wgs84_exact_cuda
FN:377,_RNvNtNtCslQO64xcTy24_10pyxis_cuda11crypto_cuda4tests_30test_gcj02_to_wgs84_exact_cuda
FN:164,_RINvMNtCslQO64xcTy24_10pyxis_cuda11crypto_cudaNtNtB5_7context16PyxisCudaContext17crypto_exact_cudadEB5_
FN:15,_RINvMNtCslQO64xcTy24_10pyxis_cuda11crypto_cudaNtNtB5_7context16PyxisCudaContext18bd09_to_gcj02_cudadEB5_
FN:139,_RINvMNtCslQO64xcTy24_10pyxis_cuda11crypto_cudaNtNtB5_7context16PyxisCudaContext18bd09_to_wgs84_cudadEB5_
FN:39,_RINvMNtCslQO64xcTy24_10pyxis_cuda11crypto_cudaNtNtB5_7context16PyxisCudaContext18gcj02_to_bd09_cudadEB5_
FN:114,_RINvMNtCslQO64xcTy24_10pyxis_cuda11crypto_cudaNtNtB5_7context16PyxisCudaContext18wgs84_to_bd09_cudadEB5_
FN:64,_RINvMNtCslQO64xcTy24_10pyxis_cuda11crypto_cudaNtNtB5_7context16PyxisCudaContext19gcj02_to_wgs84_cudadEB5_
FN:89,_RINvMNtCslQO64xcTy24_10pyxis_cuda11crypto_cudaNtNtB5_7context16PyxisCudaContext19wgs84_to_gcj02_cudadEB5_
FNDA:3,_RNvNtNtCs7TwC2c9SHrR_10pyxis_cuda11crypto_cuda4tests_15test_exact_cuda
FNDA:3,_RNvNtNtCs7TwC2c9SHrR_10pyxis_cuda11crypto_cuda4tests_23test_bd09_to_gcj02_cuda
FNDA:3,_RNvNtNtCs7TwC2c9SHrR_10pyxis_cuda11crypto_cuda4tests_23test_bd09_to_wgs84_cuda
FNDA:3,_RNvNtNtCs7TwC2c9SHrR_10pyxis_cuda11crypto_cuda4tests_23test_gcj02_to_bd09_cuda
FNDA:3,_RNvNtNtCs7TwC2c9SHrR_10pyxis_cuda11crypto_cuda4tests_23test_wgs84_to_bd09_cuda
FNDA:3,_RNvNtNtCs7TwC2c9SHrR_10pyxis_cuda11crypto_cuda4tests_24test_gcj02_to_wgs84_cuda
FNDA:3,_RNvNtNtCs7TwC2c9SHrR_10pyxis_cuda11crypto_cuda4tests_24test_wgs84_to_gcj02_cuda
FNDA:3,_RNvNtNtCs7TwC2c9SHrR_10pyxis_cuda11crypto_cuda4tests_29test_bd09_to_gcj02_exact_cuda
FNDA:3,_RNvNtNtCs7TwC2c9SHrR_10pyxis_cuda11crypto_cuda4tests_29test_bd09_to_wgs84_exact_cuda
FNDA:3,_RNvNtNtCs7TwC2c9SHrR_10pyxis_cuda11crypto_cuda4tests_30test_gcj02_to_wgs84_exact_cuda
FNDA:18,_RINvMNtCs7TwC2c9SHrR_10pyxis_cuda11crypto_cudaNtNtB5_7context16PyxisCudaContext17crypto_exact_cudadEB5_
FNDA:3,_RINvMNtCs7TwC2c9SHrR_10pyxis_cuda11crypto_cudaNtNtB5_7context16PyxisCudaContext18bd09_to_gcj02_cudadEB5_
FNDA:3,_RINvMNtCs7TwC2c9SHrR_10pyxis_cuda11crypto_cudaNtNtB5_7context16PyxisCudaContext18bd09_to_wgs84_cudadEB5_
FNDA:3,_RINvMNtCs7TwC2c9SHrR_10pyxis_cuda11crypto_cudaNtNtB5_7context16PyxisCudaContext18gcj02_to_bd09_cudadEB5_
FNDA:3,_RINvMNtCs7TwC2c9SHrR_10pyxis_cuda11crypto_cudaNtNtB5_7context16PyxisCudaContext18wgs84_to_bd09_cudadEB5_
FNDA:3,_RINvMNtCs7TwC2c9SHrR_10pyxis_cuda11crypto_cudaNtNtB5_7context16PyxisCudaContext19gcj02_to_wgs84_cudadEB5_
FNDA:3,_RINvMNtCs7TwC2c9SHrR_10pyxis_cuda11crypto_cudaNtNtB5_7context16PyxisCudaContext19wgs84_to_gcj02_cudadEB5_
FNDA:450000,_RNCNvNtNtCs7TwC2c9SHrR_10pyxis_cuda11crypto_cuda4tests_15test_exact_cuda0B7_
FNDA:450000,_RNCNvNtNtCs7TwC2c9SHrR_10pyxis_cuda11crypto_cuda4tests_15test_exact_cudas0_0B7_
FNDA:450000,_RNCNvNtNtCs7TwC2c9SHrR_10pyxis_cuda11crypto_cuda4tests_15test_exact_cudas1_0B7_
FNDA:450000,_RNCNvNtNtCs7TwC2c9SHrR_10pyxis_cuda11crypto_cuda4tests_15test_exact_cudas2_0B7_
FNDA:450000,_RNCNvNtNtCs7TwC2c9SHrR_10pyxis_cuda11crypto_cuda4tests_15test_exact_cudas3_0B7_
FNDA:450000,_RNCNvNtNtCs7TwC2c9SHrR_10pyxis_cuda11crypto_cuda4tests_15test_exact_cudas4_0B7_
FNDA:450000,_RNCNvNtNtCs7TwC2c9SHrR_10pyxis_cuda11crypto_cuda4tests_15test_exact_cudas5_0B7_
FNDA:450000,_RNCNvNtNtCs7TwC2c9SHrR_10pyxis_cuda11crypto_cuda4tests_15test_exact_cudas6_0B7_
FNDA:450000,_RNCNvNtNtCs7TwC2c9SHrR_10pyxis_cuda11crypto_cuda4tests_15test_exact_cudas_0B7_
FNDA:6,_RINvMNtCsiMB2r01GLXC_10pyxis_cuda11crypto_cudaNtNtB5_7context16PyxisCudaContext17crypto_exact_cudadEB5_
FNDA:1,_RINvMNtCsiMB2r01GLXC_10pyxis_cuda11crypto_cudaNtNtB5_7context16PyxisCudaContext18bd09_to_gcj02_cudadEB5_
FNDA:1,_RINvMNtCsiMB2r01GLXC_10pyxis_cuda11crypto_cudaNtNtB5_7context16PyxisCudaContext18bd09_to_wgs84_cudadEB5_
FNDA:1,_RINvMNtCsiMB2r01GLXC_10pyxis_cuda11crypto_cudaNtNtB5_7context16PyxisCudaContext18gcj02_to_bd09_cudadEB5_
FNDA:1,_RINvMNtCsiMB2r01GLXC_10pyxis_cuda11crypto_cudaNtNtB5_7context16PyxisCudaContext18wgs84_to_bd09_cudadEB5_
FNDA:1,_RINvMNtCsiMB2r01GLXC_10pyxis_cuda11crypto_cudaNtNtB5_7context16PyxisCudaContext19gcj02_to_wgs84_cudadEB5_
FNDA:1,_RINvMNtCsiMB2r01GLXC_10pyxis_cuda11crypto_cudaNtNtB5_7context16PyxisCudaContext19wgs84_to_gcj02_cudadEB5_
FNDA:1,_RNvNtNtCsiMB2r01GLXC_10pyxis_cuda11crypto_cuda4tests_15test_exact_cuda
FNDA:1,_RNvNtNtCsiMB2r01GLXC_10pyxis_cuda11crypto_cuda4tests_23test_bd09_to_gcj02_cuda
FNDA:1,_RNvNtNtCsiMB2r01GLXC_10pyxis_cuda11crypto_cuda4tests_23test_bd09_to_wgs84_cuda
FNDA:1,_RNvNtNtCsiMB2r01GLXC_10pyxis_cuda11crypto_cuda4tests_23test_gcj02_to_bd09_cuda
FNDA:1,_RNvNtNtCsiMB2r01GLXC_10pyxis_cuda11crypto_cuda4tests_23test_wgs84_to_bd09_cuda
FNDA:1,_RNvNtNtCsiMB2r01GLXC_10pyxis_cuda11crypto_cuda4tests_24test_gcj02_to_wgs84_cuda
FNDA:1,_RNvNtNtCsiMB2r01GLXC_10pyxis_cuda11crypto_cuda4tests_24test_wgs84_to_gcj02_cuda
FNDA:1,_RNvNtNtCsiMB2r01GLXC_10pyxis_cuda11crypto_cuda4tests_29test_bd09_to_gcj02_exact_cuda
FNDA:1,_RNvNtNtCsiMB2r01GLXC_10pyxis_cuda11crypto_cuda4tests_29test_bd09_to_wgs84_exact_cuda
FNDA:1,_RNvNtNtCsiMB2r01GLXC_10pyxis_cuda11crypto_cuda4tests_30test_gcj02_to_wgs84_exact_cuda
FNDA:150000,_RNCNvNtNtCsiMB2r01GLXC_10pyxis_cuda11crypto_cuda4tests_15test_exact_cuda0B7_
FNDA:150000,_RNCNvNtNtCsiMB2r01GLXC_10pyxis_cuda11crypto_cuda4tests_15test_exact_cudas0_0B7_
FNDA:150000,_RNCNvNtNtCsiMB2r01GLXC_10pyxis_cuda11crypto_cuda4tests_15test_exact_cudas1_0B7_
FNDA:150000,_RNCNvNtNtCsiMB2r01GLXC_10pyxis_cuda11crypto_cuda4tests_15test_exact_cudas2_0B7_
FNDA:150000,_RNCNvNtNtCsiMB2r01GLXC_10pyxis_cuda11crypto_cuda4tests_15test_exact_cudas3_0B7_
FNDA:150000,_RNCNvNtNtCsiMB2r01GLXC_10pyxis_cuda11crypto_cuda4tests_15test_exact_cudas4_0B7_
FNDA:150000,_RNCNvNtNtCsiMB2r01GLXC_10pyxis_cuda11crypto_cuda4tests_15test_exact_cudas5_0B7_
FNDA:150000,_RNCNvNtNtCsiMB2r01GLXC_10pyxis_cuda11crypto_cuda4tests_15test_exact_cudas6_0B7_
FNDA:150000,_RNCNvNtNtCsiMB2r01GLXC_10pyxis_cuda11crypto_cuda4tests_15test_exact_cudas_0B7_
FNDA:600000,_RNCNvNtNtCslQO64xcTy24_10pyxis_cuda11crypto_cuda4tests_15test_exact_cuda0B7_
FNDA:600000,_RNCNvNtNtCslQO64xcTy24_10pyxis_cuda11crypto_cuda4tests_15test_exact_cudas0_0B7_
FNDA:600000,_RNCNvNtNtCslQO64xcTy24_10pyxis_cuda11crypto_cuda4tests_15test_exact_cudas1_0B7_
FNDA:600000,_RNCNvNtNtCslQO64xcTy24_10pyxis_cuda11crypto_cuda4tests_15test_exact_cudas2_0B7_
FNDA:600000,_RNCNvNtNtCslQO64xcTy24_10pyxis_cuda11crypto_cuda4tests_15test_exact_cudas3_0B7_
FNDA:600000,_RNCNvNtNtCslQO64xcTy24_10pyxis_cuda11crypto_cuda4tests_15test_exact_cudas4_0B7_
FNDA:600000,_RNCNvNtNtCslQO64xcTy24_10pyxis_cuda11crypto_cuda4tests_15test_exact_cudas5_0B7_
FNDA:600000,_RNCNvNtNtCslQO64xcTy24_10pyxis_cuda11crypto_cuda4tests_15test_exact_cudas6_0B7_
FNDA:600000,_RNCNvNtNtCslQO64xcTy24_10pyxis_cuda11crypto_cuda4tests_15test_exact_cudas_0B7_
FNDA:4,_RNvNtNtCslQO64xcTy24_10pyxis_cuda11crypto_cuda4tests_15test_exact_cuda
FNDA:4,_RNvNtNtCslQO64xcTy24_10pyxis_cuda11crypto_cuda4tests_23test_bd09_to_gcj02_cuda
FNDA:4,_RNvNtNtCslQO64xcTy24_10pyxis_cuda11crypto_cuda4tests_23test_bd09_to_wgs84_cuda
FNDA:4,_RNvNtNtCslQO64xcTy24_10pyxis_cuda11crypto_cuda4tests_23test_gcj02_to_bd09_cuda
FNDA:4,_RNvNtNtCslQO64xcTy24_10pyxis_cuda11crypto_cuda4tests_23test_wgs84_to_bd09_cuda
FNDA:4,_RNvNtNtCslQO64xcTy24_10pyxis_cuda11crypto_cuda4tests_24test_gcj02_to_wgs84_cuda
FNDA:4,_RNvNtNtCslQO64xcTy24_10pyxis_cuda11crypto_cuda4tests_24test_wgs84_to_gcj02_cuda
FNDA:4,_RNvNtNtCslQO64xcTy24_10pyxis_cuda11crypto_cuda4tests_29test_bd09_to_gcj02_exact_cuda
FNDA:4,_RNvNtNtCslQO64xcTy24_10pyxis_cuda11crypto_cuda4tests_29test_bd09_to_wgs84_exact_cuda
FNDA:4,_RNvNtNtCslQO64xcTy24_10pyxis_cuda11crypto_cuda4tests_30test_gcj02_to_wgs84_exact_cuda
FNDA:24,_RINvMNtCslQO64xcTy24_10pyxis_cuda11crypto_cudaNtNtB5_7context16PyxisCudaContext17crypto_exact_cudadEB5_
FNDA:4,_RINvMNtCslQO64xcTy24_10pyxis_cuda11crypto_cudaNtNtB5_7context16PyxisCudaContext18bd09_to_gcj02_cudadEB5_
FNDA:4,_RINvMNtCslQO64xcTy24_10pyxis_cuda11crypto_cudaNtNtB5_7context16PyxisCudaContext18bd09_to_wgs84_cudadEB5_
FNDA:4,_RINvMNtCslQO64xcTy24_10pyxis_cuda11crypto_cudaNtNtB5_7context16PyxisCudaContext18gcj02_to_bd09_cudadEB5_
FNDA:4,_RINvMNtCslQO64xcTy24_10pyxis_cuda11crypto_cudaNtNtB5_7context16PyxisCudaContext18wgs84_to_bd09_cudadEB5_
FNDA:4,_RINvMNtCslQO64xcTy24_10pyxis_cuda11crypto_cudaNtNtB5_7context16PyxisCudaContext19gcj02_to_wgs84_cudadEB5_
FNDA:4,_RINvMNtCslQO64xcTy24_10pyxis_cuda11crypto_cudaNtNtB5_7context16PyxisCudaContext19wgs84_to_gcj02_cudadEB5_
FNF:26
FNH:26
DA:15,8
DA:16,8
DA:17,8
DA:18,8
DA:19,8
DA:20,8
DA:21,8
DA:22,8
DA:23,8
DA:24,8
DA:25,8
DA:27,8
DA:28,8
DA:29,8
DA:30,8
DA:31,8
DA:32,8
DA:35,8
DA:37,8
DA:38,8
DA:39,8
DA:40,8
DA:41,8
DA:42,8
DA:43,8
DA:44,8
DA:45,8
DA:46,8
DA:47,8
DA:48,8
DA:49,8
DA:52,8
DA:53,8
DA:54,8
DA:55,8
DA:56,8
DA:57,8
DA:60,8
DA:62,8
DA:63,8
DA:64,8
DA:65,8
DA:66,8
DA:67,8
DA:68,8
DA:69,8
DA:70,8
DA:71,8
DA:72,8
DA:73,8
DA:74,8
DA:77,8
DA:78,8
DA:79,8
DA:80,8
DA:81,8
DA:82,8
DA:85,8
DA:87,8
DA:88,8
DA:89,8
DA:90,8
DA:91,8
DA:92,8
DA:93,8
DA:94,8
DA:95,8
DA:96,8
DA:97,8
DA:98,8
DA:99,8
DA:102,8
DA:103,8
DA:104,8
DA:105,8
DA:106,8
DA:107,8
DA:110,8
DA:112,8
DA:113,8
DA:114,8
DA:115,8
DA:116,8
DA:117,8
DA:118,8
DA:119,8
DA:120,8
DA:121,8
DA:122,8
DA:123,8
DA:124,8
DA:127,8
DA:128,8
DA:129,8
DA:130,8
DA:131,8
DA:132,8
DA:135,8
DA:137,8
DA:138,8
DA:139,8
DA:140,8
DA:141,8
DA:142,8
DA:143,8
DA:144,8
DA:145,8
DA:146,8
DA:147,8
DA:148,8
DA:149,8
DA:152,8
DA:153,8
DA:154,8
DA:155,8
DA:156,8
DA:157,8
DA:160,8
DA:162,8
DA:163,8
DA:164,48
DA:165,48
DA:166,48
DA:167,48
DA:168,48
DA:169,48
DA:170,48
DA:171,48
DA:172,48
DA:173,48
DA:174,48
DA:175,48
DA:176,48
DA:177,48
DA:179,16
DA:182,16
DA:185,16
DA:187,0
DA:189,48
DA:190,0
DA:191,48
DA:193,48
DA:194,48
DA:196,48
DA:197,48
DA:198,48
DA:199,48
DA:200,0
DA:201,0
DA:202,0
DA:203,48
DA:204,48
DA:207,48
DA:209,48
DA:210,48
DA:221,8
DA:222,8
DA:223,8
DA:224,8
DA:225,8
DA:226,8
DA:227,8
DA:228,8
DA:229,8
DA:230,8
DA:232,8
DA:233,8
DA:235,8
DA:236,8
DA:237,8
DA:239,8
DA:240,8
DA:241,8
DA:242,8
DA:243,8
DA:244,8
DA:245,8
DA:246,8
DA:247,8
DA:248,8
DA:249,8
DA:250,8
DA:251,8
DA:252,8
DA:253,8
DA:254,8
DA:256,8
DA:257,8
DA:258,8
DA:259,8
DA:260,8
DA:261,8
DA:262,8
DA:263,8
DA:264,8
DA:265,8
DA:267,8
DA:268,8
DA:270,8
DA:271,8
DA:272,8
DA:274,8
DA:275,8
DA:276,8
DA:277,8
DA:278,8
DA:279,8
DA:280,8
DA:281,8
DA:282,8
DA:283,8
DA:284,8
DA:285,8
DA:286,8
DA:287,8
DA:288,8
DA:289,8
DA:291,8
DA:292,8
DA:293,8
DA:294,8
DA:295,8
DA:296,8
DA:297,8
DA:298,8
DA:299,8
DA:301,8
DA:302,8
DA:303,8
DA:304,8
DA:305,8
DA:307,8
DA:308,8
DA:309,8
DA:310,8
DA:311,8
DA:312,8
DA:313,8
DA:314,8
DA:315,8
DA:316,8
DA:318,8
DA:319,8
DA:321,8
DA:322,8
DA:323,8
DA:325,8
DA:326,8
DA:327,8
DA:328,8
DA:329,8
DA:330,8
DA:331,8
DA:332,8
DA:333,8
DA:334,8
DA:335,8
DA:336,8
DA:337,8
DA:338,8
DA:339,8
DA:340,8
DA:341,8
DA:343,8
DA:344,8
DA:345,8
DA:346,8
DA:347,8
DA:348,8
DA:349,8
DA:351,8
DA:352,8
DA:353,8
DA:354,8
DA:355,8
DA:356,8
DA:357,8
DA:358,8
DA:359,8
DA:360,8
DA:361,8
DA:362,8
DA:363,8
DA:364,8
DA:365,8
DA:366,8
DA:367,8
DA:369,8
DA:370,8
DA:371,8
DA:372,8
DA:373,8
DA:374,8
DA:375,8
DA:377,8
DA:378,8
DA:379,8
DA:380,8
DA:381,8
DA:382,8
DA:383,8
DA:384,8
DA:385,8
DA:386,8
DA:387,8
DA:388,8
DA:389,8
DA:390,8
DA:391,8
DA:392,8
DA:393,8
DA:395,8
DA:396,8
DA:397,8
DA:398,8
DA:399,8
DA:400,8
DA:401,8
DA:403,8
DA:404,8
DA:405,8
DA:406,8
DA:407,8
DA:408,1200000
DA:409,8
DA:410,8
DA:411,1200000
DA:412,8
DA:413,8
DA:414,8
DA:415,8
DA:416,1200000
DA:417,8
DA:418,8
DA:419,8
DA:420,8
DA:421,1200000
DA:422,8
DA:423,8
DA:424,8
DA:425,8
DA:426,1200000
DA:427,8
DA:428,8
DA:429,8
DA:430,8
DA:431,1200000
DA:432,8
DA:434,8
DA:435,8
DA:436,8
DA:437,8
DA:438,8
DA:439,8
DA:440,8
DA:441,8
DA:442,8
DA:443,8
DA:444,8
DA:445,8
DA:446,8
DA:447,8
DA:448,8
DA:449,8
DA:450,8
DA:451,8
DA:452,8
DA:453,8
DA:454,8
DA:455,8
DA:456,8
DA:457,8
DA:458,1200000
DA:459,1200000
DA:460,1200000
DA:461,1200000
DA:462,1200000
DA:463,1200000
DA:464,8
DA:465,8
DA:466,8
DA:467,8
DA:468,8
DA:471,8
DA:472,8
DA:473,8
DA:474,8
DA:475,8
DA:476,8
DA:477,8
DA:478,8
DA:479,8
DA:480,8
DA:481,8
DA:482,8
DA:483,8
DA:484,8
DA:485,8
DA:486,8
DA:487,8
DA:488,8
DA:489,8
DA:490,8
DA:491,8
DA:492,8
DA:493,8
DA:494,8
DA:495,1200000
DA:496,1200000
DA:497,1200000
DA:498,1200000
DA:499,1200000
DA:500,1200000
DA:501,8
DA:502,8
DA:503,8
DA:504,8
DA:505,8
DA:508,8
DA:509,8
DA:510,8
DA:511,8
DA:512,8
DA:513,8
DA:514,8
DA:515,8
DA:516,8
DA:517,8
DA:518,8
DA:519,8
DA:520,8
DA:521,8
DA:522,8
DA:523,8
DA:524,8
DA:525,8
DA:526,8
DA:527,8
DA:528,8
DA:529,8
DA:530,8
DA:531,8
DA:532,1200000
DA:533,1200000
DA:534,1200000
DA:535,1200000
DA:536,1200000
DA:537,1200000
DA:538,8
DA:539,8
DA:540,8
DA:541,8
DA:542,8
DA:544,8
BRDA:406,0,0,0
BRDA:406,0,1,3
BRDA:406,1,2,0
BRDA:406,1,3,1
BRDA:406,2,4,0
BRDA:406,2,5,4
BRF:2
BRH:1
LF:463
LH:458
end_of_record
SF:D:\project\pyxis\rust-cuda\src\datum_compensate_cuda.rs
FN:57,_RNvNtNtCs7TwC2c9SHrR_10pyxis_cuda21datum_compensate_cuda4tests_26test_datum_compensate_cuda
FN:14,_RINvMNtCs7TwC2c9SHrR_10pyxis_cuda21datum_compensate_cudaNtNtB5_7context16PyxisCudaContext21datum_compensate_cudadEB5_
FN:14,_RINvMNtCsiMB2r01GLXC_10pyxis_cuda21datum_compensate_cudaNtNtB5_7context16PyxisCudaContext21datum_compensate_cudadEB5_
FN:57,_RNvNtNtCsiMB2r01GLXC_10pyxis_cuda21datum_compensate_cuda4tests_26test_datum_compensate_cuda
FN:57,_RNvNtNtCslQO64xcTy24_10pyxis_cuda21datum_compensate_cuda4tests_26test_datum_compensate_cuda
FN:14,_RINvMNtCslQO64xcTy24_10pyxis_cuda21datum_compensate_cudaNtNtB5_7context16PyxisCudaContext21datum_compensate_cudadEB5_
FNDA:3,_RNvNtNtCs7TwC2c9SHrR_10pyxis_cuda21datum_compensate_cuda4tests_26test_datum_compensate_cuda
FNDA:3,_RINvMNtCs7TwC2c9SHrR_10pyxis_cuda21datum_compensate_cudaNtNtB5_7context16PyxisCudaContext21datum_compensate_cudadEB5_
FNDA:1,_RINvMNtCsiMB2r01GLXC_10pyxis_cuda21datum_compensate_cudaNtNtB5_7context16PyxisCudaContext21datum_compensate_cudadEB5_
FNDA:1,_RNvNtNtCsiMB2r01GLXC_10pyxis_cuda21datum_compensate_cuda4tests_26test_datum_compensate_cuda
FNDA:4,_RNvNtNtCslQO64xcTy24_10pyxis_cuda21datum_compensate_cuda4tests_26test_datum_compensate_cuda
FNDA:4,_RINvMNtCslQO64xcTy24_10pyxis_cuda21datum_compensate_cudaNtNtB5_7context16PyxisCudaContext21datum_compensate_cudadEB5_
FNF:2
FNH:2
DA:14,8
DA:15,8
DA:16,8
DA:17,8
DA:18,8
DA:19,8
DA:20,8
DA:21,8
DA:22,8
DA:23,8
DA:24,8
DA:25,8
DA:27,8
DA:28,8
DA:29,8
DA:31,8
DA:32,8
DA:35,8
DA:36,8
DA:37,8
DA:38,8
DA:39,0
DA:40,0
DA:41,0
DA:42,8
DA:43,8
DA:46,8
DA:48,8
DA:49,8
DA:57,8
DA:58,8
DA:59,8
DA:60,8
DA:61,8
DA:62,8
DA:63,8
DA:64,8
DA:65,8
DA:67,8
DA:68,8
DA:69,8
BRF:0
BRH:0
LF:41
LH:38
end_of_record
SF:D:\project\pyxis\rust\crates\pyxis\src\crypto.rs
FN:153,_RINvNtCsj4Af5ZZAp41_5pyxis6crypto13bd09_to_gcj02dECs7TwC2c9SHrR_10pyxis_cuda
FN:221,_RINvNtCsj4Af5ZZAp41_5pyxis6crypto13bd09_to_wgs84dECs7TwC2c9SHrR_10pyxis_cuda
FN:252,_RINvNtCsj4Af5ZZAp41_5pyxis6crypto13gcj02_to_bd09dECs7TwC2c9SHrR_10pyxis_cuda
FN:321,_RINvNtCsj4Af5ZZAp41_5pyxis6crypto13wgs84_to_bd09dECs7TwC2c9SHrR_10pyxis_cuda
FN:190,_RINvNtCsj4Af5ZZAp41_5pyxis6crypto14gcj02_to_wgs84dECs7TwC2c9SHrR_10pyxis_cuda
FN:289,_RINvNtCsj4Af5ZZAp41_5pyxis6crypto14wgs84_to_gcj02dECs7TwC2c9SHrR_10pyxis_cuda
FN:425,_RINvNtCsj4Af5ZZAp41_5pyxis6crypto18haversine_distancedECs7TwC2c9SHrR_10pyxis_cuda
FN:113,_RINvNtCsj4Af5ZZAp41_5pyxis6crypto5deltadECs7TwC2c9SHrR_10pyxis_cuda
FN:76,_RINvNtCsj4Af5ZZAp41_5pyxis6crypto9transformdECs7TwC2c9SHrR_10pyxis_cuda
FN:375,_RINvNtCsj4Af5ZZAp41_5pyxis6crypto12crypto_exactpppEB4_
FN:153,_RINvNtCsj4Af5ZZAp41_5pyxis6crypto13bd09_to_gcj02pEB4_
FN:221,_RINvNtCsj4Af5ZZAp41_5pyxis6crypto13bd09_to_wgs84pEB4_
FN:252,_RINvNtCsj4Af5ZZAp41_5pyxis6crypto13gcj02_to_bd09pEB4_
FN:321,_RINvNtCsj4Af5ZZAp41_5pyxis6crypto13wgs84_to_bd09pEB4_
FN:190,_RINvNtCsj4Af5ZZAp41_5pyxis6crypto14gcj02_to_wgs84pEB4_
FN:289,_RINvNtCsj4Af5ZZAp41_5pyxis6crypto14wgs84_to_gcj02pEB4_
FN:425,_RINvNtCsj4Af5ZZAp41_5pyxis6crypto18haversine_distancepEB4_
FN:113,_RINvNtCsj4Af5ZZAp41_5pyxis6crypto5deltapEB4_
FN:76,_RINvNtCsj4Af5ZZAp41_5pyxis6crypto9transformpEB4_
FN:153,_RINvNtCsgZfI1YIrp63_5pyxis6crypto13bd09_to_gcj02dECsiMB2r01GLXC_10pyxis_cuda
FN:221,_RINvNtCsgZfI1YIrp63_5pyxis6crypto13bd09_to_wgs84dECsiMB2r01GLXC_10pyxis_cuda
FN:252,_RINvNtCsgZfI1YIrp63_5pyxis6crypto13gcj02_to_bd09dECsiMB2r01GLXC_10pyxis_cuda
FN:321,_RINvNtCsgZfI1YIrp63_5pyxis6crypto13wgs84_to_bd09dECsiMB2r01GLXC_10pyxis_cuda
FN:190,_RINvNtCsgZfI1YIrp63_5pyxis6crypto14gcj02_to_wgs84dECsiMB2r01GLXC_10pyxis_cuda
FN:289,_RINvNtCsgZfI1YIrp63_5pyxis6crypto14wgs84_to_gcj02dECsiMB2r01GLXC_10pyxis_cuda
FN:425,_RINvNtCsgZfI1YIrp63_5pyxis6crypto18haversine_distancedECsiMB2r01GLXC_10pyxis_cuda
FN:113,_RINvNtCsgZfI1YIrp63_5pyxis6crypto5deltadECsiMB2r01GLXC_10pyxis_cuda
FN:76,_RINvNtCsgZfI1YIrp63_5pyxis6crypto9transformdECsiMB2r01GLXC_10pyxis_cuda
FN:375,_RINvNtCsgZfI1YIrp63_5pyxis6crypto12crypto_exactpppEB4_
FN:153,_RINvNtCsgZfI1YIrp63_5pyxis6crypto13bd09_to_gcj02pEB4_
FN:221,_RINvNtCsgZfI1YIrp63_5pyxis6crypto13bd09_to_wgs84pEB4_
FN:252,_RINvNtCsgZfI1YIrp63_5pyxis6crypto13gcj02_to_bd09pEB4_
FN:321,_RINvNtCsgZfI1YIrp63_5pyxis6crypto13wgs84_to_bd09pEB4_
FN:190,_RINvNtCsgZfI1YIrp63_5pyxis6crypto14gcj02_to_wgs84pEB4_
FN:289,_RINvNtCsgZfI1YIrp63_5pyxis6crypto14wgs84_to_gcj02pEB4_
FN:425,_RINvNtCsgZfI1YIrp63_5pyxis6crypto18haversine_distancepEB4_
FN:113,_RINvNtCsgZfI1YIrp63_5pyxis6crypto5deltapEB4_
FN:76,_RINvNtCsgZfI1YIrp63_5pyxis6crypto9transformpEB4_
FN:153,_RINvNtCsjVzEeH5ybfU_5pyxis6crypto13bd09_to_gcj02dECslQO64xcTy24_10pyxis_cuda
FN:221,_RINvNtCsjVzEeH5ybfU_5pyxis6crypto13bd09_to_wgs84dECslQO64xcTy24_10pyxis_cuda
FN:252,_RINvNtCsjVzEeH5ybfU_5pyxis6crypto13gcj02_to_bd09dECslQO64xcTy24_10pyxis_cuda
FN:321,_RINvNtCsjVzEeH5ybfU_5pyxis6crypto13wgs84_to_bd09dECslQO64xcTy24_10pyxis_cuda
FN:190,_RINvNtCsjVzEeH5ybfU_5pyxis6crypto14gcj02_to_wgs84dECslQO64xcTy24_10pyxis_cuda
FN:289,_RINvNtCsjVzEeH5ybfU_5pyxis6crypto14wgs84_to_gcj02dECslQO64xcTy24_10pyxis_cuda
FN:425,_RINvNtCsjVzEeH5ybfU_5pyxis6crypto18haversine_distancedECslQO64xcTy24_10pyxis_cuda
FN:113,_RINvNtCsjVzEeH5ybfU_5pyxis6crypto5deltadECslQO64xcTy24_10pyxis_cuda
FN:76,_RINvNtCsjVzEeH5ybfU_5pyxis6crypto9transformdECslQO64xcTy24_10pyxis_cuda
FNDA:6,_RINvNtCsj4Af5ZZAp41_5pyxis6crypto13bd09_to_gcj02dECs7TwC2c9SHrR_10pyxis_cuda
FNDA:3,_RINvNtCsj4Af5ZZAp41_5pyxis6crypto13bd09_to_wgs84dECs7TwC2c9SHrR_10pyxis_cuda
FNDA:900000,_RINvNtCsj4Af5ZZAp41_5pyxis6crypto13gcj02_to_bd09dECs7TwC2c9SHrR_10pyxis_cuda
FNDA:900000,_RINvNtCsj4Af5ZZAp41_5pyxis6crypto13wgs84_to_bd09dECs7TwC2c9SHrR_10pyxis_cuda
FNDA:6,_RINvNtCsj4Af5ZZAp41_5pyxis6crypto14gcj02_to_wgs84dECs7TwC2c9SHrR_10pyxis_cuda
FNDA:1800000,_RINvNtCsj4Af5ZZAp41_5pyxis6crypto14wgs84_to_gcj02dECs7TwC2c9SHrR_10pyxis_cuda
FNDA:2700000,_RINvNtCsj4Af5ZZAp41_5pyxis6crypto18haversine_distancedECs7TwC2c9SHrR_10pyxis_cuda
FNDA:1800006,_RINvNtCsj4Af5ZZAp41_5pyxis6crypto5deltadECs7TwC2c9SHrR_10pyxis_cuda
FNDA:1800006,_RINvNtCsj4Af5ZZAp41_5pyxis6crypto9transformdECs7TwC2c9SHrR_10pyxis_cuda
FNDA:0,_RINvNtCsj4Af5ZZAp41_5pyxis6crypto12crypto_exactpppEB4_
FNDA:0,_RINvNtCsj4Af5ZZAp41_5pyxis6crypto13bd09_to_gcj02pEB4_
FNDA:0,_RINvNtCsj4Af5ZZAp41_5pyxis6crypto13bd09_to_wgs84pEB4_
FNDA:0,_RINvNtCsj4Af5ZZAp41_5pyxis6crypto13gcj02_to_bd09pEB4_
FNDA:0,_RINvNtCsj4Af5ZZAp41_5pyxis6crypto13wgs84_to_bd09pEB4_
FNDA:0,_RINvNtCsj4Af5ZZAp41_5pyxis6crypto14gcj02_to_wgs84pEB4_
FNDA:0,_RINvNtCsj4Af5ZZAp41_5pyxis6crypto14wgs84_to_gcj02pEB4_
FNDA:0,_RINvNtCsj4Af5ZZAp41_5pyxis6crypto18haversine_distancepEB4_
FNDA:0,_RINvNtCsj4Af5ZZAp41_5pyxis6crypto5deltapEB4_
FNDA:0,_RINvNtCsj4Af5ZZAp41_5pyxis6crypto9transformpEB4_
FNDA:2,_RINvNtCsgZfI1YIrp63_5pyxis6crypto13bd09_to_gcj02dECsiMB2r01GLXC_10pyxis_cuda
FNDA:1,_RINvNtCsgZfI1YIrp63_5pyxis6crypto13bd09_to_wgs84dECsiMB2r01GLXC_10pyxis_cuda
FNDA:300000,_RINvNtCsgZfI1YIrp63_5pyxis6crypto13gcj02_to_bd09dECsiMB2r01GLXC_10pyxis_cuda
FNDA:300000,_RINvNtCsgZfI1YIrp63_5pyxis6crypto13wgs84_to_bd09dECsiMB2r01GLXC_10pyxis_cuda
FNDA:2,_RINvNtCsgZfI1YIrp63_5pyxis6crypto14gcj02_to_wgs84dECsiMB2r01GLXC_10pyxis_cuda
FNDA:600000,_RINvNtCsgZfI1YIrp63_5pyxis6crypto14wgs84_to_gcj02dECsiMB2r01GLXC_10pyxis_cuda
FNDA:900000,_RINvNtCsgZfI1YIrp63_5pyxis6crypto18haversine_distancedECsiMB2r01GLXC_10pyxis_cuda
FNDA:600002,_RINvNtCsgZfI1YIrp63_5pyxis6crypto5deltadECsiMB2r01GLXC_10pyxis_cuda
FNDA:600002,_RINvNtCsgZfI1YIrp63_5pyxis6crypto9transformdECsiMB2r01GLXC_10pyxis_cuda
FNDA:0,_RINvNtCsgZfI1YIrp63_5pyxis6crypto12crypto_exactpppEB4_
FNDA:0,_RINvNtCsgZfI1YIrp63_5pyxis6crypto13bd09_to_gcj02pEB4_
FNDA:0,_RINvNtCsgZfI1YIrp63_5pyxis6crypto13bd09_to_wgs84pEB4_
FNDA:0,_RINvNtCsgZfI1YIrp63_5pyxis6crypto13gcj02_to_bd09pEB4_
FNDA:0,_RINvNtCsgZfI1YIrp63_5pyxis6crypto13wgs84_to_bd09pEB4_
FNDA:0,_RINvNtCsgZfI1YIrp63_5pyxis6crypto14gcj02_to_wgs84pEB4_
FNDA:0,_RINvNtCsgZfI1YIrp63_5pyxis6crypto14wgs84_to_gcj02pEB4_
FNDA:0,_RINvNtCsgZfI1YIrp63_5pyxis6crypto18haversine_distancepEB4_
FNDA:0,_RINvNtCsgZfI1YIrp63_5pyxis6crypto5deltapEB4_
FNDA:0,_RINvNtCsgZfI1YIrp63_5pyxis6crypto9transformpEB4_
FNDA:8,_RINvNtCsjVzEeH5ybfU_5pyxis6crypto13bd09_to_gcj02dECslQO64xcTy24_10pyxis_cuda
FNDA:4,_RINvNtCsjVzEeH5ybfU_5pyxis6crypto13bd09_to_wgs84dECslQO64xcTy24_10pyxis_cuda
FNDA:1200000,_RINvNtCsjVzEeH5ybfU_5pyxis6crypto13gcj02_to_bd09dECslQO64xcTy24_10pyxis_cuda
FNDA:1200000,_RINvNtCsjVzEeH5ybfU_5pyxis6crypto13wgs84_to_bd09dECslQO64xcTy24_10pyxis_cuda
FNDA:8,_RINvNtCsjVzEeH5ybfU_5pyxis6crypto14gcj02_to_wgs84dECslQO64xcTy24_10pyxis_cuda
FNDA:2400000,_RINvNtCsjVzEeH5ybfU_5pyxis6crypto14wgs84_to_gcj02dECslQO64xcTy24_10pyxis_cuda
FNDA:3600000,_RINvNtCsjVzEeH5ybfU_5pyxis6crypto18haversine_distancedECslQO64xcTy24_10pyxis_cuda
FNDA:2400008,_RINvNtCsjVzEeH5ybfU_5pyxis6crypto5deltadECslQO64xcTy24_10pyxis_cuda
FNDA:2400008,_RINvNtCsjVzEeH5ybfU_5pyxis6crypto9transformdECslQO64xcTy24_10pyxis_cuda
FNF:10
FNH:9
DA:76,4800016
DA:77,4800016
DA:78,4800016
DA:80,4800016
DA:81,4800016
DA:82,4800016
DA:83,4800016
DA:84,4800016
DA:86,4800016
DA:87,4800016
DA:89,4800016
DA:90,4800016
DA:91,4800016
DA:92,4800016
DA:93,4800016
DA:94,4800016
DA:95,4800016
DA:96,4800016
DA:98,4800016
DA:99,4800016
DA:101,4800016
DA:102,4800016
DA:103,4800016
DA:104,4800016
DA:105,4800016
DA:106,4800016
DA:107,4800016
DA:108,4800016
DA:110,4800016
DA:111,4800016
DA:113,4800016
DA:114,4800016
DA:115,4800016
DA:117,4800016
DA:118,4800016
DA:119,4800016
DA:120,4800016
DA:121,4800016
DA:123,4800016
DA:124,4800016
DA:125,4800016
DA:126,4800016
DA:127,4800016
DA:128,4800016
DA:153,16
DA:154,16
DA:155,16
DA:157,16
DA:158,16
DA:159,16
DA:160,16
DA:161,16
DA:162,16
DA:163,16
DA:164,16
DA:165,16
DA:190,16
DA:191,16
DA:192,16
DA:194,16
DA:195,16
DA:196,16
DA:221,8
DA:222,8
DA:223,8
DA:225,8
DA:226,8
DA:227,8
DA:252,2400000
DA:253,2400000
DA:254,2400000
DA:256,2400000
DA:257,2400000
DA:258,2400000
DA:259,2400000
DA:260,2400000
DA:261,2400000
DA:262,2400000
DA:263,2400000
DA:289,4800000
DA:290,4800000
DA:291,4800000
DA:293,4800000
DA:294,4800000
DA:295,4800000
DA:321,2400000
DA:322,2400000
DA:323,2400000
DA:325,2400000
DA:326,2400000
DA:327,2400000
DA:375,0
DA:376,0
DA:377,0
DA:378,0
DA:379,0
DA:380,0
DA:381,0
DA:382,0
DA:383,0
DA:384,0
DA:385,0
DA:387,0
DA:388,0
DA:389,0
DA:390,0
DA:392,0
DA:393,0
DA:395,0
DA:396,0
DA:397,0
DA:398,0
DA:402,0
DA:403,0
DA:404,0
DA:406,0
DA:408,0
DA:410,0
DA:413,0
DA:415,0
DA:417,0
DA:419,0
DA:421,0
DA:422,0
DA:425,7200000
DA:426,7200000
DA:427,7200000
DA:429,7200000
DA:430,7200000
DA:431,7200000
DA:432,7200000
DA:434,7200000
DA:435,7200000
DA:437,7200000
DA:438,7200000
DA:439,7200000
DA:441,7200000
DA:442,7200000
BRF:0
BRH:0
LF:138
LH:105
end_of_record
SF:D:\project\pyxis\rust\crates\pyxis\src\datum_compensate.rs
FN:36,_RNvMNtCsj4Af5ZZAp41_5pyxis16datum_compensateINtB2_15DatumCompensatepE3newB4_
FN:42,_RNvMNtCsj4Af5ZZAp41_5pyxis16datum_compensateINtB2_15DatumCompensatepE9transformB4_
FN:36,_RNvMNtCsgZfI1YIrp63_5pyxis16datum_compensateINtB2_15DatumCompensatepE3newB4_
FN:42,_RNvMNtCsgZfI1YIrp63_5pyxis16datum_compensateINtB2_15DatumCompensatepE9transformB4_
FNDA:0,_RNvMNtCsj4Af5ZZAp41_5pyxis16datum_compensateINtB2_15DatumCompensatepE3newB4_
FNDA:0,_RNvMNtCsj4Af5ZZAp41_5pyxis16datum_compensateINtB2_15DatumCompensatepE9transformB4_
FNDA:0,_RNvMNtCsgZfI1YIrp63_5pyxis16datum_compensateINtB2_15DatumCompensatepE3newB4_
FNDA:0,_RNvMNtCsgZfI1YIrp63_5pyxis16datum_compensateINtB2_15DatumCompensatepE9transformB4_
FNF:2
FNH:0
DA:36,0
DA:37,0
DA:38,0
DA:39,0
DA:40,0
DA:42,0
DA:43,0
DA:44,0
DA:46,0
DA:47,0
DA:48,0
DA:49,0
BRF:0
BRH:0
LF:12
LH:0
end_of_record
SF:D:\project\pyxis\rust\crates\pyxis\src\ellipsoid.rs
FN:175,_RNvMNtCsj4Af5ZZAp41_5pyxis9ellipsoidINtB2_9EllipsoiddE13eccentricity2Cs7TwC2c9SHrR_10pyxis_cuda
FN:166,_RNvMNtCsj4Af5ZZAp41_5pyxis9ellipsoidINtB2_9EllipsoiddE15semi_major_axisCs7TwC2c9SHrR_10pyxis_cuda
FN:81,_RNvMNtCsj4Af5ZZAp41_5pyxis9ellipsoidINtB2_9EllipsoiddE24from_semi_major_and_invfB4_
FN:81,_RNvMNtCsj4Af5ZZAp41_5pyxis9ellipsoidINtB2_9EllipsoidfE24from_semi_major_and_invfB4_
FN:178,_RNvMNtCsj4Af5ZZAp41_5pyxis9ellipsoidINtB2_9EllipsoidpE10flatteningB4_
FN:172,_RNvMNtCsj4Af5ZZAp41_5pyxis9ellipsoidINtB2_9EllipsoidpE12eccentricityB4_
FN:175,_RNvMNtCsj4Af5ZZAp41_5pyxis9ellipsoidINtB2_9EllipsoidpE13eccentricity2B4_
FN:146,_RNvMNtCsj4Af5ZZAp41_5pyxis9ellipsoidINtB2_9EllipsoidpE14from_semi_axisB4_
FN:166,_RNvMNtCsj4Af5ZZAp41_5pyxis9ellipsoidINtB2_9EllipsoidpE15semi_major_axisB4_
FN:169,_RNvMNtCsj4Af5ZZAp41_5pyxis9ellipsoidINtB2_9EllipsoidpE15semi_minor_axisB4_
FN:181,_RNvMNtCsj4Af5ZZAp41_5pyxis9ellipsoidINtB2_9EllipsoidpE18inverse_flatteningB4_
FN:175,_RNvMNtCsgZfI1YIrp63_5pyxis9ellipsoidINtB2_9EllipsoiddE13eccentricity2CsiMB2r01GLXC_10pyxis_cuda
FN:166,_RNvMNtCsgZfI1YIrp63_5pyxis9ellipsoidINtB2_9EllipsoiddE15semi_major_axisCsiMB2r01GLXC_10pyxis_cuda
FN:81,_RNvMNtCsgZfI1YIrp63_5pyxis9ellipsoidINtB2_9EllipsoiddE24from_semi_major_and_invfB4_
FN:81,_RNvMNtCsgZfI1YIrp63_5pyxis9ellipsoidINtB2_9EllipsoidfE24from_semi_major_and_invfB4_
FN:178,_RNvMNtCsgZfI1YIrp63_5pyxis9ellipsoidINtB2_9EllipsoidpE10flatteningB4_
FN:172,_RNvMNtCsgZfI1YIrp63_5pyxis9ellipsoidINtB2_9EllipsoidpE12eccentricityB4_
FN:175,_RNvMNtCsgZfI1YIrp63_5pyxis9ellipsoidINtB2_9EllipsoidpE13eccentricity2B4_
FN:146,_RNvMNtCsgZfI1YIrp63_5pyxis9ellipsoidINtB2_9EllipsoidpE14from_semi_axisB4_
FN:166,_RNvMNtCsgZfI1YIrp63_5pyxis9ellipsoidINtB2_9EllipsoidpE15semi_major_axisB4_
FN:169,_RNvMNtCsgZfI1YIrp63_5pyxis9ellipsoidINtB2_9EllipsoidpE15semi_minor_axisB4_
FN:181,_RNvMNtCsgZfI1YIrp63_5pyxis9ellipsoidINtB2_9EllipsoidpE18inverse_flatteningB4_
FN:175,_RNvMNtCsjVzEeH5ybfU_5pyxis9ellipsoidINtB2_9EllipsoiddE13eccentricity2CslQO64xcTy24_10pyxis_cuda
FN:166,_RNvMNtCsjVzEeH5ybfU_5pyxis9ellipsoidINtB2_9EllipsoiddE15semi_major_axisCslQO64xcTy24_10pyxis_cuda
FN:81,_RNvMNtCsjVzEeH5ybfU_5pyxis9ellipsoidINtB2_9EllipsoiddE24from_semi_major_and_invfB4_
FN:81,_RNvMNtCsjVzEeH5ybfU_5pyxis9ellipsoidINtB2_9EllipsoidfE24from_semi_major_and_invfB4_
FNDA:1800006,_RNvMNtCsj4Af5ZZAp41_5pyxis9ellipsoidINtB2_9EllipsoiddE13eccentricity2Cs7TwC2c9SHrR_10pyxis_cuda
FNDA:4500006,_RNvMNtCsj4Af5ZZAp41_5pyxis9ellipsoidINtB2_9EllipsoiddE15semi_major_axisCs7TwC2c9SHrR_10pyxis_cuda
FNDA:12,_RNvMNtCsj4Af5ZZAp41_5pyxis9ellipsoidINtB2_9EllipsoiddE24from_semi_major_and_invfB4_
FNDA:0,_RNvMNtCsj4Af5ZZAp41_5pyxis9ellipsoidINtB2_9EllipsoidfE24from_semi_major_and_invfB4_
FNDA:0,_RNvMNtCsj4Af5ZZAp41_5pyxis9ellipsoidINtB2_9EllipsoidpE10flatteningB4_
FNDA:0,_RNvMNtCsj4Af5ZZAp41_5pyxis9ellipsoidINtB2_9EllipsoidpE12eccentricityB4_
FNDA:0,_RNvMNtCsj4Af5ZZAp41_5pyxis9ellipsoidINtB2_9EllipsoidpE13eccentricity2B4_
FNDA:0,_RNvMNtCsj4Af5ZZAp41_5pyxis9ellipsoidINtB2_9EllipsoidpE14from_semi_axisB4_
FNDA:0,_RNvMNtCsj4Af5ZZAp41_5pyxis9ellipsoidINtB2_9EllipsoidpE15semi_major_axisB4_
FNDA:0,_RNvMNtCsj4Af5ZZAp41_5pyxis9ellipsoidINtB2_9EllipsoidpE15semi_minor_axisB4_
FNDA:0,_RNvMNtCsj4Af5ZZAp41_5pyxis9ellipsoidINtB2_9EllipsoidpE18inverse_flatteningB4_
FNDA:600002,_RNvMNtCsgZfI1YIrp63_5pyxis9ellipsoidINtB2_9EllipsoiddE13eccentricity2CsiMB2r01GLXC_10pyxis_cuda
FNDA:1500002,_RNvMNtCsgZfI1YIrp63_5pyxis9ellipsoidINtB2_9EllipsoiddE15semi_major_axisCsiMB2r01GLXC_10pyxis_cuda
FNDA:4,_RNvMNtCsgZfI1YIrp63_5pyxis9ellipsoidINtB2_9EllipsoiddE24from_semi_major_and_invfB4_
FNDA:0,_RNvMNtCsgZfI1YIrp63_5pyxis9ellipsoidINtB2_9EllipsoidfE24from_semi_major_and_invfB4_
FNDA:0,_RNvMNtCsgZfI1YIrp63_5pyxis9ellipsoidINtB2_9EllipsoidpE10flatteningB4_
FNDA:0,_RNvMNtCsgZfI1YIrp63_5pyxis9ellipsoidINtB2_9EllipsoidpE12eccentricityB4_
FNDA:0,_RNvMNtCsgZfI1YIrp63_5pyxis9ellipsoidINtB2_9EllipsoidpE13eccentricity2B4_
FNDA:0,_RNvMNtCsgZfI1YIrp63_5pyxis9ellipsoidINtB2_9EllipsoidpE14from_semi_axisB4_
FNDA:0,_RNvMNtCsgZfI1YIrp63_5pyxis9ellipsoidINtB2_9EllipsoidpE15semi_major_axisB4_
FNDA:0,_RNvMNtCsgZfI1YIrp63_5pyxis9ellipsoidINtB2_9EllipsoidpE15semi_minor_axisB4_
FNDA:0,_RNvMNtCsgZfI1YIrp63_5pyxis9ellipsoidINtB2_9EllipsoidpE18inverse_flatteningB4_
FNDA:2400008,_RNvMNtCsjVzEeH5ybfU_5pyxis9ellipsoidINtB2_9EllipsoiddE13eccentricity2CslQO64xcTy24_10pyxis_cuda
FNDA:6000008,_RNvMNtCsjVzEeH5ybfU_5pyxis9ellipsoidINtB2_9EllipsoiddE15semi_major_axisCslQO64xcTy24_10pyxis_cuda
FNDA:16,_RNvMNtCsjVzEeH5ybfU_5pyxis9ellipsoidINtB2_9EllipsoiddE24from_semi_major_and_invfB4_
FNDA:0,_RNvMNtCsjVzEeH5ybfU_5pyxis9ellipsoidINtB2_9EllipsoidfE24from_semi_major_and_invfB4_
FNF:8
FNH:3
DA:81,32
DA:82,32
DA:83,32
DA:84,32
DA:85,32
DA:87,32
DA:88,32
DA:89,32
DA:90,32
DA:91,32
DA:92,32
DA:93,32
DA:94,32
DA:95,32
DA:146,0
DA:148,0
DA:150,0
DA:152,0
DA:154,0
DA:156,0
DA:157,0
DA:158,0
DA:159,0
DA:160,0
DA:161,0
DA:162,0
DA:163,0
DA:164,0
DA:166,12000016
DA:169,0
DA:172,0
DA:175,4800016
DA:178,0
DA:181,0
BRF:0
BRH:0
LF:34
LH:16
end_of_record
SF:D:\project\pyxis\rust\crates\pyxis\src\linear.rs
FN:31,_RINvNtCsj4Af5ZZAp41_5pyxis6linear16rotate_matrix_2dpEB4_
FN:61,_RINvNtCsj4Af5ZZAp41_5pyxis6linear9rotate_2dpEB4_
FN:31,_RINvNtCsgZfI1YIrp63_5pyxis6linear16rotate_matrix_2dpEB4_
FN:61,_RINvNtCsgZfI1YIrp63_5pyxis6linear9rotate_2dpEB4_
FNDA:0,_RINvNtCsj4Af5ZZAp41_5pyxis6linear16rotate_matrix_2dpEB4_
FNDA:0,_RINvNtCsj4Af5ZZAp41_5pyxis6linear9rotate_2dpEB4_
FNDA:0,_RINvNtCsgZfI1YIrp63_5pyxis6linear16rotate_matrix_2dpEB4_
FNDA:0,_RINvNtCsgZfI1YIrp63_5pyxis6linear9rotate_2dpEB4_
FNF:2
FNH:0
DA:31,0
DA:32,0
DA:33,0
DA:35,0
DA:36,0
DA:37,0
DA:38,0
DA:39,0
DA:61,0
DA:62,0
DA:63,0
DA:65,0
DA:66,0
DA:67,0
DA:68,0
BRF:0
BRH:0
LF:15
LH:0
end_of_record
SF:D:\project\pyxis\rust\crates\pyxis\src\migrate.rs
FN:36,_RINvNtCsj4Af5ZZAp41_5pyxis7migrate6abs_2dpEB4_
FN:11,_RINvNtCsj4Af5ZZAp41_5pyxis7migrate6rel_2dpEB4_
FN:59,_RINvNtCsj4Af5ZZAp41_5pyxis7migrate9origin_2dpEB4_
FN:36,_RINvNtCsgZfI1YIrp63_5pyxis7migrate6abs_2dpEB4_
FN:11,_RINvNtCsgZfI1YIrp63_5pyxis7migrate6rel_2dpEB4_
FN:59,_RINvNtCsgZfI1YIrp63_5pyxis7migrate9origin_2dpEB4_
FNDA:0,_RINvNtCsj4Af5ZZAp41_5pyxis7migrate6abs_2dpEB4_
FNDA:0,_RINvNtCsj4Af5ZZAp41_5pyxis7migrate6rel_2dpEB4_
FNDA:0,_RINvNtCsj4Af5ZZAp41_5pyxis7migrate9origin_2dpEB4_
FNDA:0,_RINvNtCsgZfI1YIrp63_5pyxis7migrate6abs_2dpEB4_
FNDA:0,_RINvNtCsgZfI1YIrp63_5pyxis7migrate6rel_2dpEB4_
FNDA:0,_RINvNtCsgZfI1YIrp63_5pyxis7migrate9origin_2dpEB4_
FNF:3
FNH:0
DA:11,0
DA:12,0
DA:13,0
DA:14,0
DA:15,0
DA:16,0
DA:17,0
DA:18,0
DA:19,0
DA:21,0
DA:22,0
DA:23,0
DA:24,0
DA:25,0
DA:26,0
DA:27,0
DA:36,0
DA:37,0
DA:38,0
DA:39,0
DA:40,0
DA:41,0
DA:42,0
DA:43,0
DA:44,0
DA:46,0
DA:47,0
DA:48,0
DA:49,0
DA:50,0
DA:59,0
DA:60,0
DA:61,0
DA:63,0
DA:64,0
DA:65,0
DA:66,0
DA:67,0
BRF:0
BRH:0
LF:38
LH:0
end_of_record
SF:D:\project\pyxis\rust\crates\pyxis\src\space.rs
FN:44,_RINvNtCsj4Af5ZZAp41_5pyxis5space18cartesian_to_polarpEB4_
FN:20,_RINvNtCsj4Af5ZZAp41_5pyxis5space18polar_to_cartesianpEB4_
FN:101,_RINvNtCsj4Af5ZZAp41_5pyxis5space22cartesian_to_sphericalpEB4_
FN:191,_RINvNtCsj4Af5ZZAp41_5pyxis5space22spherical_to_cartesianpEB4_
FN:73,_RINvNtCsj4Af5ZZAp41_5pyxis5space24cartesian_to_cylindricalpEB4_
FN:132,_RINvNtCsj4Af5ZZAp41_5pyxis5space24cylindrical_to_cartesianpEB4_
FN:162,_RINvNtCsj4Af5ZZAp41_5pyxis5space24cylindrical_to_sphericalpEB4_
FN:221,_RINvNtCsj4Af5ZZAp41_5pyxis5space24spherical_to_cylindricalpEB4_
FN:44,_RINvNtCsgZfI1YIrp63_5pyxis5space18cartesian_to_polarpEB4_
FN:20,_RINvNtCsgZfI1YIrp63_5pyxis5space18polar_to_cartesianpEB4_
FN:101,_RINvNtCsgZfI1YIrp63_5pyxis5space22cartesian_to_sphericalpEB4_
FN:191,_RINvNtCsgZfI1YIrp63_5pyxis5space22spherical_to_cartesianpEB4_
FN:73,_RINvNtCsgZfI1YIrp63_5pyxis5space24cartesian_to_cylindricalpEB4_
FN:132,_RINvNtCsgZfI1YIrp63_5pyxis5space24cylindrical_to_cartesianpEB4_
FN:162,_RINvNtCsgZfI1YIrp63_5pyxis5space24cylindrical_to_sphericalpEB4_
FN:221,_RINvNtCsgZfI1YIrp63_5pyxis5space24spherical_to_cylindricalpEB4_
FNDA:0,_RINvNtCsj4Af5ZZAp41_5pyxis5space18cartesian_to_polarpEB4_
FNDA:0,_RINvNtCsj4Af5ZZAp41_5pyxis5space18polar_to_cartesianpEB4_
FNDA:0,_RINvNtCsj4Af5ZZAp41_5pyxis5space22cartesian_to_sphericalpEB4_
FNDA:0,_RINvNtCsj4Af5ZZAp41_5pyxis5space22spherical_to_cartesianpEB4_
FNDA:0,_RINvNtCsj4Af5ZZAp41_5pyxis5space24cartesian_to_cylindricalpEB4_
FNDA:0,_RINvNtCsj4Af5ZZAp41_5pyxis5space24cylindrical_to_cartesianpEB4_
FNDA:0,_RINvNtCsj4Af5ZZAp41_5pyxis5space24cylindrical_to_sphericalpEB4_
FNDA:0,_RINvNtCsj4Af5ZZAp41_5pyxis5space24spherical_to_cylindricalpEB4_
FNDA:0,_RINvNtCsgZfI1YIrp63_5pyxis5space18cartesian_to_polarpEB4_
FNDA:0,_RINvNtCsgZfI1YIrp63_5pyxis5space18polar_to_cartesianpEB4_
FNDA:0,_RINvNtCsgZfI1YIrp63_5pyxis5space22cartesian_to_sphericalpEB4_
FNDA:0,_RINvNtCsgZfI1YIrp63_5pyxis5space22spherical_to_cartesianpEB4_
FNDA:0,_RINvNtCsgZfI1YIrp63_5pyxis5space24cartesian_to_cylindricalpEB4_
FNDA:0,_RINvNtCsgZfI1YIrp63_5pyxis5space24cylindrical_to_cartesianpEB4_
FNDA:0,_RINvNtCsgZfI1YIrp63_5pyxis5space24cylindrical_to_sphericalpEB4_
FNDA:0,_RINvNtCsgZfI1YIrp63_5pyxis5space24spherical_to_cylindricalpEB4_
FNF:8
FNH:0
DA:20,0
DA:21,0
DA:22,0
DA:24,0
DA:25,0
DA:44,0
DA:45,0
DA:46,0
DA:48,0
DA:49,0
DA:73,0
DA:74,0
DA:75,0
DA:77,0
DA:78,0
DA:101,0
DA:102,0
DA:103,0
DA:105,0
DA:106,0
DA:107,0
DA:132,0
DA:133,0
DA:134,0
DA:136,0
DA:137,0
DA:162,0
DA:163,0
DA:164,0
DA:166,0
DA:167,0
DA:191,0
DA:192,0
DA:193,0
DA:195,0
DA:196,0
DA:221,0
DA:222,0
DA:223,0
DA:225,0
DA:226,0
BRF:0
BRH:0
LF:41
LH:0
end_of_record
SF:D:\project\pyxis\rust\crates\pyxis\src\types.rs
FN:48,_RNvXs0_NtCsj4Af5ZZAp41_5pyxis5typesfINtB5_14ConstEllipsoidfE13krasovsky1940
FN:49,_RNvXs0_NtCsj4Af5ZZAp41_5pyxis5typesfINtB5_14ConstEllipsoidfE5wgs84
FN:47,_RNvXs0_NtCsj4Af5ZZAp41_5pyxis5typesfINtB5_14ConstEllipsoidfE7grs1980
FN:46,_RNvXs0_NtCsj4Af5ZZAp41_5pyxis5typesfINtB5_14ConstEllipsoidfE7iag1975
FN:45,_RNvXs0_NtCsj4Af5ZZAp41_5pyxis5typesfINtB5_14ConstEllipsoidfE8cgcs2000
FN:64,_RNvXs1_NtCsj4Af5ZZAp41_5pyxis5typesdINtB5_14ConstEllipsoiddE13krasovsky1940
FN:65,_RNvXs1_NtCsj4Af5ZZAp41_5pyxis5typesdINtB5_14ConstEllipsoiddE5wgs84
FN:63,_RNvXs1_NtCsj4Af5ZZAp41_5pyxis5typesdINtB5_14ConstEllipsoiddE7grs1980
FN:62,_RNvXs1_NtCsj4Af5ZZAp41_5pyxis5typesdINtB5_14ConstEllipsoiddE7iag1975
FN:61,_RNvXs1_NtCsj4Af5ZZAp41_5pyxis5typesdINtB5_14ConstEllipsoiddE8cgcs2000
FN:37,_RNCNvNtCsj4Af5ZZAp41_5pyxis5types11GRS1980_F320B5_
FN:53,_RNCNvNtCsj4Af5ZZAp41_5pyxis5types11GRS1980_F640B5_
FN:39,_RNCNvNtCsj4Af5ZZAp41_5pyxis5types11IAG1975_F320B5_
FN:55,_RNCNvNtCsj4Af5ZZAp41_5pyxis5types11IAG1975_F640B5_
FN:41,_RNCNvNtCsj4Af5ZZAp41_5pyxis5types17KRASOVSKY1940_F320B5_
FN:57,_RNCNvNtCsj4Af5ZZAp41_5pyxis5types17KRASOVSKY1940_F640B5_
FN:43,_RNCNvNtCsj4Af5ZZAp41_5pyxis5types9WGS84_F320B5_
FN:59,_RNCNvNtCsj4Af5ZZAp41_5pyxis5types9WGS84_F640B5_
FN:48,_RNvXs0_NtCsgZfI1YIrp63_5pyxis5typesfINtB5_14ConstEllipsoidfE13krasovsky1940
FN:49,_RNvXs0_NtCsgZfI1YIrp63_5pyxis5typesfINtB5_14ConstEllipsoidfE5wgs84
FN:47,_RNvXs0_NtCsgZfI1YIrp63_5pyxis5typesfINtB5_14ConstEllipsoidfE7grs1980
FN:46,_RNvXs0_NtCsgZfI1YIrp63_5pyxis5typesfINtB5_14ConstEllipsoidfE7iag1975
FN:45,_RNvXs0_NtCsgZfI1YIrp63_5pyxis5typesfINtB5_14ConstEllipsoidfE8cgcs2000
FN:64,_RNvXs1_NtCsgZfI1YIrp63_5pyxis5typesdINtB5_14ConstEllipsoiddE13krasovsky1940
FN:65,_RNvXs1_NtCsgZfI1YIrp63_5pyxis5typesdINtB5_14ConstEllipsoiddE5wgs84
FN:63,_RNvXs1_NtCsgZfI1YIrp63_5pyxis5typesdINtB5_14ConstEllipsoiddE7grs1980
FN:62,_RNvXs1_NtCsgZfI1YIrp63_5pyxis5typesdINtB5_14ConstEllipsoiddE7iag1975
FN:61,_RNvXs1_NtCsgZfI1YIrp63_5pyxis5typesdINtB5_14ConstEllipsoiddE8cgcs2000
FN:37,_RNCNvNtCsgZfI1YIrp63_5pyxis5types11GRS1980_F320B5_
FN:53,_RNCNvNtCsgZfI1YIrp63_5pyxis5types11GRS1980_F640B5_
FN:39,_RNCNvNtCsgZfI1YIrp63_5pyxis5types11IAG1975_F320B5_
FN:55,_RNCNvNtCsgZfI1YIrp63_5pyxis5types11IAG1975_F640B5_
FN:41,_RNCNvNtCsgZfI1YIrp63_5pyxis5types17KRASOVSKY1940_F320B5_
FN:57,_RNCNvNtCsgZfI1YIrp63_5pyxis5types17KRASOVSKY1940_F640B5_
FN:43,_RNCNvNtCsgZfI1YIrp63_5pyxis5types9WGS84_F320B5_
FN:59,_RNCNvNtCsgZfI1YIrp63_5pyxis5types9WGS84_F640B5_
FN:48,_RNvXs0_NtCsjVzEeH5ybfU_5pyxis5typesfINtB5_14ConstEllipsoidfE13krasovsky1940
FN:49,_RNvXs0_NtCsjVzEeH5ybfU_5pyxis5typesfINtB5_14ConstEllipsoidfE5wgs84
FN:47,_RNvXs0_NtCsjVzEeH5ybfU_5pyxis5typesfINtB5_14ConstEllipsoidfE7grs1980
FN:46,_RNvXs0_NtCsjVzEeH5ybfU_5pyxis5typesfINtB5_14ConstEllipsoidfE7iag1975
FN:45,_RNvXs0_NtCsjVzEeH5ybfU_5pyxis5typesfINtB5_14ConstEllipsoidfE8cgcs2000
FN:64,_RNvXs1_NtCsjVzEeH5ybfU_5pyxis5typesdINtB5_14ConstEllipsoiddE13krasovsky1940
FN:65,_RNvXs1_NtCsjVzEeH5ybfU_5pyxis5typesdINtB5_14ConstEllipsoiddE5wgs84
FN:63,_RNvXs1_NtCsjVzEeH5ybfU_5pyxis5typesdINtB5_14ConstEllipsoiddE7grs1980
FN:62,_RNvXs1_NtCsjVzEeH5ybfU_5pyxis5typesdINtB5_14ConstEllipsoiddE7iag1975
FN:61,_RNvXs1_NtCsjVzEeH5ybfU_5pyxis5typesdINtB5_14ConstEllipsoiddE8cgcs2000
FN:37,_RNCNvNtCsjVzEeH5ybfU_5pyxis5types11GRS1980_F320B5_
FN:53,_RNCNvNtCsjVzEeH5ybfU_5pyxis5types11GRS1980_F640B5_
FN:39,_RNCNvNtCsjVzEeH5ybfU_5pyxis5types11IAG1975_F320B5_
FN:55,_RNCNvNtCsjVzEeH5ybfU_5pyxis5types11IAG1975_F640B5_
FN:41,_RNCNvNtCsjVzEeH5ybfU_5pyxis5types17KRASOVSKY1940_F320B5_
FN:57,_RNCNvNtCsjVzEeH5ybfU_5pyxis5types17KRASOVSKY1940_F640B5_
FN:43,_RNCNvNtCsjVzEeH5ybfU_5pyxis5types9WGS84_F320B5_
FN:59,_RNCNvNtCsjVzEeH5ybfU_5pyxis5types9WGS84_F640B5_
FNDA:0,_RNvXs0_NtCsj4Af5ZZAp41_5pyxis5typesfINtB5_14ConstEllipsoidfE13krasovsky1940
FNDA:0,_RNvXs0_NtCsj4Af5ZZAp41_5pyxis5typesfINtB5_14ConstEllipsoidfE5wgs84
FNDA:0,_RNvXs0_NtCsj4Af5ZZAp41_5pyxis5typesfINtB5_14ConstEllipsoidfE7grs1980
FNDA:0,_RNvXs0_NtCsj4Af5ZZAp41_5pyxis5typesfINtB5_14ConstEllipsoidfE7iag1975
FNDA:0,_RNvXs0_NtCsj4Af5ZZAp41_5pyxis5typesfINtB5_14ConstEllipsoidfE8cgcs2000
FNDA:3600012,_RNvXs1_NtCsj4Af5ZZAp41_5pyxis5typesdINtB5_14ConstEllipsoiddE13krasovsky1940
FNDA:2700000,_RNvXs1_NtCsj4Af5ZZAp41_5pyxis5typesdINtB5_14ConstEllipsoiddE5wgs84
FNDA:0,_RNvXs1_NtCsj4Af5ZZAp41_5pyxis5typesdINtB5_14ConstEllipsoiddE7grs1980
FNDA:0,_RNvXs1_NtCsj4Af5ZZAp41_5pyxis5typesdINtB5_14ConstEllipsoiddE7iag1975
FNDA:0,_RNvXs1_NtCsj4Af5ZZAp41_5pyxis5typesdINtB5_14ConstEllipsoiddE8cgcs2000
FNDA:0,_RNCNvNtCsj4Af5ZZAp41_5pyxis5types11GRS1980_F320B5_
FNDA:0,_RNCNvNtCsj4Af5ZZAp41_5pyxis5types11GRS1980_F640B5_
FNDA:0,_RNCNvNtCsj4Af5ZZAp41_5pyxis5types11IAG1975_F320B5_
FNDA:0,_RNCNvNtCsj4Af5ZZAp41_5pyxis5types11IAG1975_F640B5_
FNDA:0,_RNCNvNtCsj4Af5ZZAp41_5pyxis5types17KRASOVSKY1940_F320B5_
FNDA:9,_RNCNvNtCsj4Af5ZZAp41_5pyxis5types17KRASOVSKY1940_F640B5_
FNDA:0,_RNCNvNtCsj4Af5ZZAp41_5pyxis5types9WGS84_F320B5_
FNDA:3,_RNCNvNtCsj4Af5ZZAp41_5pyxis5types9WGS84_F640B5_
FNDA:0,_RNvXs0_NtCsgZfI1YIrp63_5pyxis5typesfINtB5_14ConstEllipsoidfE13krasovsky1940
FNDA:0,_RNvXs0_NtCsgZfI1YIrp63_5pyxis5typesfINtB5_14ConstEllipsoidfE5wgs84
FNDA:0,_RNvXs0_NtCsgZfI1YIrp63_5pyxis5typesfINtB5_14ConstEllipsoidfE7grs1980
FNDA:0,_RNvXs0_NtCsgZfI1YIrp63_5pyxis5typesfINtB5_14ConstEllipsoidfE7iag1975
FNDA:0,_RNvXs0_NtCsgZfI1YIrp63_5pyxis5typesfINtB5_14ConstEllipsoidfE8cgcs2000
FNDA:1200004,_RNvXs1_NtCsgZfI1YIrp63_5pyxis5typesdINtB5_14ConstEllipsoiddE13krasovsky1940
FNDA:900000,_RNvXs1_NtCsgZfI1YIrp63_5pyxis5typesdINtB5_14ConstEllipsoiddE5wgs84
FNDA:0,_RNvXs1_NtCsgZfI1YIrp63_5pyxis5typesdINtB5_14ConstEllipsoiddE7grs1980
FNDA:0,_RNvXs1_NtCsgZfI1YIrp63_5pyxis5typesdINtB5_14ConstEllipsoiddE7iag1975
FNDA:0,_RNvXs1_NtCsgZfI1YIrp63_5pyxis5typesdINtB5_14ConstEllipsoiddE8cgcs2000
FNDA:0,_RNCNvNtCsgZfI1YIrp63_5pyxis5types11GRS1980_F320B5_
FNDA:0,_RNCNvNtCsgZfI1YIrp63_5pyxis5types11GRS1980_F640B5_
FNDA:0,_RNCNvNtCsgZfI1YIrp63_5pyxis5types11IAG1975_F320B5_
FNDA:0,_RNCNvNtCsgZfI1YIrp63_5pyxis5types11IAG1975_F640B5_
FNDA:0,_RNCNvNtCsgZfI1YIrp63_5pyxis5types17KRASOVSKY1940_F320B5_
FNDA:3,_RNCNvNtCsgZfI1YIrp63_5pyxis5types17KRASOVSKY1940_F640B5_
FNDA:0,_RNCNvNtCsgZfI1YIrp63_5pyxis5types9WGS84_F320B5_
FNDA:1,_RNCNvNtCsgZfI1YIrp63_5pyxis5types9WGS84_F640B5_
FNDA:0,_RNvXs0_NtCsjVzEeH5ybfU_5pyxis5typesfINtB5_14ConstEllipsoidfE13krasovsky1940
FNDA:0,_RNvXs0_NtCsjVzEeH5ybfU_5pyxis5typesfINtB5_14ConstEllipsoidfE5wgs84
FNDA:0,_RNvXs0_NtCsjVzEeH5ybfU_5pyxis5typesfINtB5_14ConstEllipsoidfE7grs1980
FNDA:0,_RNvXs0_NtCsjVzEeH5ybfU_5pyxis5typesfINtB5_14ConstEllipsoidfE7iag1975
FNDA:0,_RNvXs0_NtCsjVzEeH5ybfU_5pyxis5typesfINtB5_14ConstEllipsoidfE8cgcs2000
FNDA:4800016,_RNvXs1_NtCsjVzEeH5ybfU_5pyxis5typesdINtB5_14ConstEllipsoiddE13krasovsky1940
FNDA:3600000,_RNvXs1_NtCsjVzEeH5ybfU_5pyxis5typesdINtB5_14ConstEllipsoiddE5wgs84
FNDA:0,_RNvXs1_NtCsjVzEeH5ybfU_5pyxis5typesdINtB5_14ConstEllipsoiddE7grs1980
FNDA:0,_RNvXs1_NtCsjVzEeH5ybfU_5pyxis5typesdINtB5_14ConstEllipsoiddE7iag1975
FNDA:0,_RNvXs1_NtCsjVzEeH5ybfU_5pyxis5typesdINtB5_14ConstEllipsoiddE8cgcs2000
FNDA:0,_RNCNvNtCsjVzEeH5ybfU_5pyxis5types11GRS1980_F320B5_
FNDA:0,_RNCNvNtCsjVzEeH5ybfU_5pyxis5types11GRS1980_F640B5_
FNDA:0,_RNCNvNtCsjVzEeH5ybfU_5pyxis5types11IAG1975_F320B5_
FNDA:0,_RNCNvNtCsjVzEeH5ybfU_5pyxis5types11IAG1975_F640B5_
FNDA:0,_RNCNvNtCsjVzEeH5ybfU_5pyxis5types17KRASOVSKY1940_F320B5_
FNDA:12,_RNCNvNtCsjVzEeH5ybfU_5pyxis5types17KRASOVSKY1940_F640B5_
FNDA:0,_RNCNvNtCsjVzEeH5ybfU_5pyxis5types9WGS84_F320B5_
FNDA:4,_RNCNvNtCsjVzEeH5ybfU_5pyxis5types9WGS84_F640B5_
FNF:18
FNH:4
DA:37,0
DA:39,0
DA:41,0
DA:43,0
DA:45,0
DA:46,0
DA:47,0
DA:48,0
DA:49,0
DA:53,0
DA:55,0
DA:57,24
DA:59,8
DA:61,0
DA:62,0
DA:63,0
DA:64,9600032
DA:65,7200000
BRF:0
BRH:0
LF:18
LH:4
end_of_record